BL51 BANKED LINKER/LOCATER V5.12                                                        09/25/2020  15:06:33  PAGE 1


BL51 BANKED LINKER/LOCATER V5.12, INVOKED BY:
BL51 KEILMISC\OBJ\CORE\CORE_IRQ.OBJ, KEILMISC\OBJ\CORE\CORE_MAIN.OBJ, KEILMISC\OBJ\CORE\CORE_RAM.OBJ, KEILMISC\OBJ\CORE\
>> CORE_INIT.OBJ, KEILMISC\OBJ\CORE\CORE_MODULE.OBJ, KEILMISC\OBJ\CORE\CORE_FLASH.OBJ, KEILMISC\OBJ\CORE\CORE_SMBUS.OBJ,
>>  KEILMISC\OBJ\CORE\CORE_ACPI.OBJ, KEILMISC\OBJ\CORE\CORE_PMC2.OBJ, KEILMISC\OBJ\CORE\CORE_PECI.OBJ, KEILMISC\OBJ\CORE
>> \CORE_UART.OBJ, KEILMISC\OBJ\CORE\CORE_PORT6064.OBJ, KEILMISC\OBJ\CORE\CORE_ITESTRING.OBJ, KEILMISC\OBJ\CORE\CORE_FW_
>> VERSION.OBJ, KEILMISC\OBJ\CORE\REG_EC.OBJ, KEILMISC\OBJ\OEM\OEM_MAIN.OBJ, KEILMISC\OBJ\OEM\OEM_RAM.OBJ, KEILMISC\OBJ\
>> OEM\OEM_GPIO.OBJ, KEILMISC\OBJ\OEM\OEM_6266.OBJ, KEILMISC\OBJ\OEM\OEM_686C.OBJ, KEILMISC\OBJ\OEM\OEM_POWER.OBJ, KEILM
>> ISC\OBJ\OEM\OEM_CIR.OBJ, KEILMISC\OBJ\OEM\OEM_SMBUS.OBJ, KEILMISC\OBJ\OEM\OEM_FW_VERSION.OBJ, KEILMISC\OBJ\OEM\OEM_FA
>> N.OBJ, KEILMISC\OBJ\OEM\OEM_SWKBC.OBJ, KEILMISC\OBJ\CORE\STARTUP.OBJ TO ITEEC.ABS DW (9, 13, 15, 16) CODE (0X1000-0XF
>> FFF, ?CO?CORE_ITESTRING (0X40), ?C_C51STARTUP (0X70), ?PR?MAIN?CORE_MAIN (0X200), ?PR?FLASHECCODE?CORE_FLASH (0XFE00)
>> , ?CO?CORE_FW_VERSION (0XFEFE), ?CO?OEM_FW_VERSION (0XFFF8)) STACK (?STACK (0D0H)) RAMSIZE (256) BIT (0X20) DATA (0X3
>> 0) XDATA (0X700-0X7FF) NOSORTSIZE


MEMORY MODEL: LARGE


INPUT MODULES INCLUDED:
  KEILMISC\OBJ\CORE\CORE_IRQ.OBJ (CORE_IRQ)
  KEILMISC\OBJ\CORE\CORE_MAIN.OBJ (CORE_MAIN)
  KEILMISC\OBJ\CORE\CORE_RAM.OBJ (CORE_RAM)
  KEILMISC\OBJ\CORE\CORE_INIT.OBJ (CORE_INIT)
  KEILMISC\OBJ\CORE\CORE_MODULE.OBJ (CORE_MODULE)
  KEILMISC\OBJ\CORE\CORE_FLASH.OBJ (CORE_FLASH)
  KEILMISC\OBJ\CORE\CORE_SMBUS.OBJ (CORE_SMBUS)
  KEILMISC\OBJ\CORE\CORE_ACPI.OBJ (CORE_ACPI)
  KEILMISC\OBJ\CORE\CORE_PMC2.OBJ (CORE_PMC2)
  KEILMISC\OBJ\CORE\CORE_PECI.OBJ (CORE_PECI)
  KEILMISC\OBJ\CORE\CORE_UART.OBJ (CORE_UART)
  KEILMISC\OBJ\CORE\CORE_PORT6064.OBJ (CORE_PORT6064)
  KEILMISC\OBJ\CORE\CORE_ITESTRING.OBJ (CORE_ITESTRING)
  KEILMISC\OBJ\CORE\CORE_FW_VERSION.OBJ (CORE_FW_VERSION)
  KEILMISC\OBJ\CORE\REG_EC.OBJ (REG_EC)
  KEILMISC\OBJ\OEM\OEM_MAIN.OBJ (OEM_MAIN)
  KEILMISC\OBJ\OEM\OEM_RAM.OBJ (OEM_RAM)
  KEILMISC\OBJ\OEM\OEM_GPIO.OBJ (OEM_GPIO)
  KEILMISC\OBJ\OEM\OEM_6266.OBJ (OEM_6266)
  KEILMISC\OBJ\OEM\OEM_686C.OBJ (OEM_686C)
  KEILMISC\OBJ\OEM\OEM_POWER.OBJ (OEM_POWER)
  KEILMISC\OBJ\OEM\OEM_CIR.OBJ (OEM_CIR)
  KEILMISC\OBJ\OEM\OEM_SMBUS.OBJ (OEM_SMBUS)
  KEILMISC\OBJ\OEM\OEM_FW_VERSION.OBJ (OEM_FW_VERSION)
  KEILMISC\OBJ\OEM\OEM_FAN.OBJ (OEM_FAN)
  KEILMISC\OBJ\OEM\OEM_SWKBC.OBJ (OEM_SWKBC)
  KEILMISC\OBJ\CORE\STARTUP.OBJ (?C_STARTUP)
  C:\KEIL\C51\LIB\C51L.LIB (?C_INIT)
  C:\KEIL\C51\LIB\C51L.LIB (?C?UIDIV)
  C:\KEIL\C51\LIB\C51L.LIB (?C?IILDX)
  C:\KEIL\C51\LIB\C51L.LIB (?C?SLDIV)
  C:\KEIL\C51\LIB\C51L.LIB (?C?ULSHR)
  C:\KEIL\C51\LIB\C51L.LIB (?C?LLDXDATA)
  C:\KEIL\C51\LIB\C51L.LIB (?C?LSTXDATA)
  C:\KEIL\C51\LIB\C51L.LIB (?C?CCASE)
  C:\KEIL\C51\LIB\C51L.LIB (?C?ICASE)
  C:\KEIL\C51\LIB\C51L.LIB (?C?ICALL)
  C:\KEIL\C51\LIB\C51L.LIB (?C?ULDIV)


BL51 BANKED LINKER/LOCATER V5.12                                                      09/25/2020  15:06:33  PAGE 2


LINK MAP OF MODULE:  ITEEC.ABS (CORE_IRQ)


            TYPE    BASE      LENGTH    RELOCATION   SEGMENT NAME
            -----------------------------------------------------

            * * * * * * *   D A T A   M E M O R Y   * * * * * * *
            REG     0000H     0008H     ABSOLUTE     "REG BANK 0"
                    0008H     0008H                  *** GAP ***
            REG     0010H     0008H     ABSOLUTE     "REG BANK 2"
                    0018H     0008H                  *** GAP ***
            DATA    0020H     0001H     ABSOLUTE     
            DATA    0021H     0001H     ABSOLUTE     
            DATA    0022H     0001H     ABSOLUTE     
            DATA    0023H     0001H     ABSOLUTE     
            DATA    0024H     0001H     ABSOLUTE     
            DATA    0025H     0001H     ABSOLUTE     
            DATA    0026H     0001H     ABSOLUTE     
            BIT     0027H.0   0000H.1   UNIT         ?BI?OEM_CHKS5SHUTDOWN?OEM_POWER
            BIT     0027H.1   0000H.1   UNIT         ?BI?OEM_CHKS3SUSPEND?OEM_POWER
            BIT     0027H.2   0000H.1   UNIT         ?BI?OEM_CHKS3WAKEUP?OEM_POWER
            BIT     0027H.3   0000H.1   UNIT         _BIT_GROUP_
                    0027H.4   0008H.4                *** GAP ***
            DATA    0030H     0001H     ABSOLUTE     
            DATA    0031H     0001H     ABSOLUTE     
            DATA    0032H     0001H     ABSOLUTE     
            DATA    0033H     0001H     ABSOLUTE     
            DATA    0034H     0001H     ABSOLUTE     
            DATA    0035H     0001H     ABSOLUTE     
            DATA    0036H     0002H     ABSOLUTE     
            IDATA   0038H     0001H     ABSOLUTE     
            DATA    0039H     0001H     ABSOLUTE     
            DATA    003AH     0001H     ABSOLUTE     
            DATA    003BH     0001H     ABSOLUTE     
            DATA    003CH     0001H     ABSOLUTE     
                    003DH     0023H                  *** GAP ***
            DATA    0060H     0001H     ABSOLUTE     
            DATA    0061H     0001H     ABSOLUTE     
            DATA    0062H     0001H     ABSOLUTE     
            DATA    0063H     0001H     ABSOLUTE     
            DATA    0064H     0001H     ABSOLUTE     
            DATA    0065H     0001H     ABSOLUTE     
            DATA    0066H     0001H     ABSOLUTE     
            DATA    0067H     0001H     ABSOLUTE     
            DATA    0068H     0001H     ABSOLUTE     
            DATA    0069H     0001H     ABSOLUTE     
            DATA    006AH     0001H     ABSOLUTE     
            DATA    006BH     0001H     ABSOLUTE     
            DATA    006CH     0001H     ABSOLUTE     
            DATA    006DH     0001H     ABSOLUTE     
                    006EH     0002H                  *** GAP ***
            IDATA   0070H     0002H     ABSOLUTE     
            DATA    0072H     0001H     ABSOLUTE     
            DATA    0073H     0001H     ABSOLUTE     
            DATA    0074H     0001H     ABSOLUTE     
            DATA    0075H     0001H     ABSOLUTE     
            DATA    0076H     0001H     ABSOLUTE     
BL51 BANKED LINKER/LOCATER V5.12                                                      09/25/2020  15:06:33  PAGE 3


                    0077H     0009H                  *** GAP ***
            IDATA   0080H     0001H     ABSOLUTE     
            IDATA   0081H     0001H     ABSOLUTE     
            IDATA   0082H     0001H     ABSOLUTE     
            IDATA   0083H     0001H     ABSOLUTE     
            IDATA   0084H     0001H     ABSOLUTE     
            IDATA   0085H     0003H     ABSOLUTE     
            IDATA   0088H     0001H     ABSOLUTE     
            IDATA   0089H     0001H     ABSOLUTE     
            IDATA   008AH     0008H     ABSOLUTE     
            IDATA   0092H     0001H     ABSOLUTE     
            IDATA   0093H     0001H     ABSOLUTE     
            IDATA   0094H     0001H     ABSOLUTE     
            IDATA   0095H     0001H     ABSOLUTE     
            IDATA   0096H     0001H     ABSOLUTE     
            IDATA   0097H     0002H     ABSOLUTE     
            IDATA   0099H     0002H     ABSOLUTE     
            IDATA   009BH     0002H     ABSOLUTE     
            IDATA   009DH     0001H     ABSOLUTE     
                    009EH     0032H                  *** GAP ***
            IDATA   00D0H     0030H     UNIT         ?STACK

            * * * * * * *  X D A T A   M E M O R Y  * * * * * * *
            XDATA   0000H     0001H     ABSOLUTE     
            XDATA   0001H     0001H     ABSOLUTE     
            XDATA   0002H     0001H     ABSOLUTE     
            XDATA   0003H     0001H     ABSOLUTE     
            XDATA   0004H     0001H     ABSOLUTE     
            XDATA   0005H     0001H     ABSOLUTE     
            XDATA   0006H     0001H     ABSOLUTE     
            XDATA   0007H     0001H     ABSOLUTE     
            XDATA   0008H     0001H     ABSOLUTE     
            XDATA   0009H     0001H     ABSOLUTE     
            XDATA   000AH     0001H     ABSOLUTE     
            XDATA   000BH     0001H     ABSOLUTE     
            XDATA   000CH     0001H     ABSOLUTE     
            XDATA   000DH     0001H     ABSOLUTE     
            XDATA   000EH     0001H     ABSOLUTE     
            XDATA   000FH     0001H     ABSOLUTE     
            XDATA   0010H     0001H     ABSOLUTE     
            XDATA   0011H     0001H     ABSOLUTE     
            XDATA   0012H     0001H     ABSOLUTE     
            XDATA   0013H     0001H     ABSOLUTE     
            XDATA   0014H     0001H     ABSOLUTE     
            XDATA   0015H     0002H     ABSOLUTE     
            XDATA   0017H     0002H     ABSOLUTE     
            XDATA   0019H     0002H     ABSOLUTE     
            XDATA   001BH     0002H     ABSOLUTE     
            XDATA   001DH     0001H     ABSOLUTE     
                    001EH     0002H                  *** GAP ***
            XDATA   0020H     000AH     ABSOLUTE     
            XDATA   002AH     0001H     ABSOLUTE     
            XDATA   002BH     0001H     ABSOLUTE     
                    002CH     0001H                  *** GAP ***
            XDATA   002DH     0001H     ABSOLUTE     
            XDATA   002EH     0001H     ABSOLUTE     
            XDATA   002FH     0001H     ABSOLUTE     
BL51 BANKED LINKER/LOCATER V5.12                                                      09/25/2020  15:06:33  PAGE 4


            XDATA   0030H     000AH     ABSOLUTE     
            XDATA   003AH     0001H     ABSOLUTE     
            XDATA   003BH     0001H     ABSOLUTE     
                    003CH     0001H                  *** GAP ***
            XDATA   003DH     0001H     ABSOLUTE     
            XDATA   003EH     0001H     ABSOLUTE     
            XDATA   003FH     0001H     ABSOLUTE     
            XDATA   0040H     000FH     ABSOLUTE     
            XDATA   004FH     0001H     ABSOLUTE     
            XDATA   0050H     0001H     ABSOLUTE     
            XDATA   0051H     0001H     ABSOLUTE     
            XDATA   0052H     0001H     ABSOLUTE     
            XDATA   0053H     0001H     ABSOLUTE     
            XDATA   0054H     0001H     ABSOLUTE     
            XDATA   0055H     0005H     ABSOLUTE     
            XDATA   005AH     0005H     ABSOLUTE     
            XDATA   005FH     0001H     ABSOLUTE     
            XDATA   0060H     0001H     ABSOLUTE     
            XDATA   0061H     0001H     ABSOLUTE     
            XDATA   0062H     0001H     ABSOLUTE     
            XDATA   0063H     0001H     ABSOLUTE     
                    0064H     0008H                  *** GAP ***
            XDATA   006CH     0001H     ABSOLUTE     
            XDATA   006DH     0001H     ABSOLUTE     
            XDATA   006EH     0001H     ABSOLUTE     
            XDATA   006FH     0001H     ABSOLUTE     
            XDATA   0070H     0008H     ABSOLUTE     
            XDATA   0078H     0008H     ABSOLUTE     
            XDATA   0080H     0001H     ABSOLUTE     
            XDATA   0081H     0001H     ABSOLUTE     
            XDATA   0082H     0002H     ABSOLUTE     
            XDATA   0084H     0001H     ABSOLUTE     
            XDATA   0085H     0001H     ABSOLUTE     
            XDATA   0086H     0002H     ABSOLUTE     
            XDATA   0088H     0002H     ABSOLUTE     
            XDATA   008AH     0001H     ABSOLUTE     
                    008BH     0003H                  *** GAP ***
            XDATA   008EH     0001H     ABSOLUTE     
            XDATA   008FH     0001H     ABSOLUTE     
            XDATA   0090H     0004H     ABSOLUTE     
            XDATA   0094H     0001H     ABSOLUTE     
            XDATA   0095H     0003H     ABSOLUTE     
            XDATA   0098H     0001H     ABSOLUTE     
            XDATA   0099H     0001H     ABSOLUTE     
            XDATA   009AH     0001H     ABSOLUTE     
            XDATA   009BH     0002H     ABSOLUTE     
            XDATA   009DH     0001H     ABSOLUTE     
            XDATA   009EH     0001H     ABSOLUTE     
                    009FH     0001H                  *** GAP ***
            XDATA   00A0H     0001H     ABSOLUTE     
            XDATA   00A1H     0001H     ABSOLUTE     
            XDATA   00A2H     0001H     ABSOLUTE     
            XDATA   00A3H     0001H     ABSOLUTE     
            XDATA   00A4H     0001H     ABSOLUTE     
            XDATA   00A5H     0001H     ABSOLUTE     
            XDATA   00A6H     0001H     ABSOLUTE     
            XDATA   00A7H     0020H     ABSOLUTE     
BL51 BANKED LINKER/LOCATER V5.12                                                      09/25/2020  15:06:33  PAGE 5


                    00C7H     0009H                  *** GAP ***
            XDATA   00D0H     0010H     ABSOLUTE     
            XDATA   00E0H     0001H     ABSOLUTE     
            XDATA   00E1H     0001H     ABSOLUTE     
            XDATA   00E2H     0001H     ABSOLUTE     
            XDATA   00E3H     0001H     ABSOLUTE     
            XDATA   00E4H     0004H     ABSOLUTE     
            XDATA   00E8H     0001H     ABSOLUTE     
            XDATA   00E9H     0001H     ABSOLUTE     
                    00EAH     0006H                  *** GAP ***
            XDATA   00F0H     0010H     ABSOLUTE     
            XDATA   0100H     0001H     ABSOLUTE     
            XDATA   0101H     0001H     ABSOLUTE     
            XDATA   0102H     0001H     ABSOLUTE     
            XDATA   0103H     0001H     ABSOLUTE     
            XDATA   0104H     0001H     ABSOLUTE     
                    0105H     000BH                  *** GAP ***
            XDATA   0110H     0001H     ABSOLUTE     
            XDATA   0111H     0001H     ABSOLUTE     
            XDATA   0112H     0001H     ABSOLUTE     
            XDATA   0113H     0001H     ABSOLUTE     
            XDATA   0114H     0001H     ABSOLUTE     
            XDATA   0115H     0001H     ABSOLUTE     
            XDATA   0116H     0001H     ABSOLUTE     
            XDATA   0117H     0001H     ABSOLUTE     
            XDATA   0118H     0001H     ABSOLUTE     
            XDATA   0119H     0001H     ABSOLUTE     
            XDATA   011AH     0001H     ABSOLUTE     
            XDATA   011BH     0001H     ABSOLUTE     
            XDATA   011CH     0001H     ABSOLUTE     
            XDATA   011DH     0001H     ABSOLUTE     
            XDATA   011EH     0001H     ABSOLUTE     
            XDATA   011FH     0001H     ABSOLUTE     
            XDATA   0120H     0001H     ABSOLUTE     
            XDATA   0121H     0001H     ABSOLUTE     
            XDATA   0122H     0002H     ABSOLUTE     
            XDATA   0124H     0002H     ABSOLUTE     
            XDATA   0126H     0002H     ABSOLUTE     
            XDATA   0128H     0001H     ABSOLUTE     
            XDATA   0129H     0001H     ABSOLUTE     
            XDATA   012AH     0001H     ABSOLUTE     
                    012BH     00D6H                  *** GAP ***
            XDATA   0201H     0001H     ABSOLUTE     
                    0202H     0001H                  *** GAP ***
            XDATA   0203H     0001H     ABSOLUTE     
                    0204H     02FCH                  *** GAP ***
            XDATA   0500H     0001H     ABSOLUTE     
            XDATA   0501H     0001H     ABSOLUTE     
                    0502H     0002H                  *** GAP ***
            XDATA   0504H     0001H     ABSOLUTE     
            XDATA   0505H     0001H     ABSOLUTE     
                    0506H     00DAH                  *** GAP ***
            XDATA   05E0H     0001H     ABSOLUTE     
            XDATA   05E1H     0001H     ABSOLUTE     
            XDATA   05E2H     0001H     ABSOLUTE     
                    05E3H     011DH                  *** GAP ***
            XDATA   0700H     0002H     UNIT         ?XD?_SET_T1_TIMEOUT?CORE_INIT
BL51 BANKED LINKER/LOCATER V5.12                                                      09/25/2020  15:06:33  PAGE 6


            XDATA   0702H     0007H     UNIT         ?XD?_INPUTDEBOUNCE?CORE_MODULE
            XDATA   0709H     0001H     UNIT         ?XD?OEM_CHECK1XBTN0?CORE_MODULE
            XDATA   070AH     0001H     UNIT         ?XD?OEM_CHECK1XBTN1?CORE_MODULE
            XDATA   070BH     0004H     UNIT         ?XD?_DO_SPI_ERASE?CORE_FLASH
            XDATA   070FH     0005H     UNIT         ?XD?_DO_SPI_WRITE_256BYTES?CORE_FLASH
            XDATA   0714H     0005H     UNIT         ?XD?_DO_SPI_READ_256BYTES?CORE_FLASH
            XDATA   0719H     0003H     UNIT         ?XD?_OEM_WRITE_SPI_256BYTES?CORE_FLASH
            XDATA   071CH     0002H     UNIT         ?XD?_CACHEDMA?CORE_FLASH
            XDATA   071EH     0001H     UNIT         ?XD?DELAYINACT?CORE_SMBUS
            XDATA   071FH     000BH     UNIT         ?XD?_BRWSMBUS?CORE_SMBUS
            XDATA   072AH     0008H     UNIT         ?XD?_BRSMBUSBLOCK?CORE_SMBUS
            XDATA   0732H     000AH     UNIT         ?XD?_BWSMBUSBLOCK?CORE_SMBUS
            XDATA   073CH     0001H     UNIT         ?XD?_CHECKSMBUSINTERFACECANBEUSE?CORE_SMBUS
            XDATA   073DH     0003H     UNIT         ?XD?_BSMBUSSENDBYTE?CORE_SMBUS
            XDATA   0740H     0005H     UNIT         ?XD?_BSMBUSRECEIVEBYTE?CORE_SMBUS
            XDATA   0745H     0007H     UNIT         ?XD?_BI2CMASTERREAD?CORE_SMBUS
            XDATA   074CH     0007H     UNIT         ?XD?_BI2CMASTERWRITE?CORE_SMBUS
            XDATA   0753H     0008H     UNIT         ?XD?_BI2CMASTERWRITETOREAD?CORE_SMBUS
            XDATA   075BH     0001H     UNIT         ?XD?PECI_READPOWERUNIT?CORE_PECI
            XDATA   075CH     000BH     UNIT         ?XD?_PECI_RDPKGCONFIG?CORE_PECI
            XDATA   0767H     000CH     UNIT         ?XD?_PECI_WRPKGCONFIG?CORE_PECI
            XDATA   0773H     0002H     UNIT         ?XD?CALC_UPDATE_PECI_TEMP?CORE_PECI
            XDATA   0775H     0001H     UNIT         ?XD?_UARTSENDDATA?CORE_UART
            XDATA   0776H     0001H     UNIT         ?XD?_UARTSENDDATA_UART1?CORE_UART
            XDATA   0777H     0002H     UNIT         ?XD?_SENDCMD2SCALAR?CORE_UART
            XDATA   0779H     0002H     UNIT         ?XD?_RAMDEBUG?OEM_MAIN
            XDATA   077BH     0006H     UNIT         ?XD?_RAMDEBUGDWORD?OEM_MAIN
            XDATA   0781H     0002H     UNIT         ?XD?_DELAY15US?OEM_MAIN
            XDATA   0783H     0002H     UNIT         ?XD?OEM_GETPORT62DATA?OEM_6266
            XDATA   0785H     0002H     UNIT         ?XD?OEM_GETPORT68DATA?OEM_686C
            XDATA   0787H     0001H     UNIT         ?XD?OEM_POWSWTOPWRBTN?OEM_POWER
            XDATA   0788H     0002H     UNIT         ?XD?HOOK_CIRWAKEUP?OEM_CIR
            XDATA   078AH     0006H     UNIT         ?XD?_GETFANRPM?OEM_FAN
            XDATA   0790H     0002H     UNIT         _XDATA_GROUP_
                    0792H     086EH                  *** GAP ***
            XDATA   1000H     0001H     ABSOLUTE     
            XDATA   1001H     0001H     ABSOLUTE     
                    1002H     0005H                  *** GAP ***
            XDATA   1007H     0001H     ABSOLUTE     
                    1008H     002BH                  *** GAP ***
            XDATA   1033H     0001H     ABSOLUTE     
            XDATA   1034H     0001H     ABSOLUTE     
                    1035H     0001H                  *** GAP ***
            XDATA   1036H     0001H     ABSOLUTE     
                    1037H     0004H                  *** GAP ***
            XDATA   103BH     0001H     ABSOLUTE     
            XDATA   103CH     0001H     ABSOLUTE     
            XDATA   103DH     0001H     ABSOLUTE     
            XDATA   103EH     0001H     ABSOLUTE     
            XDATA   103FH     0001H     ABSOLUTE     
            XDATA   1040H     0001H     ABSOLUTE     
            XDATA   1041H     0001H     ABSOLUTE     
            XDATA   1042H     0001H     ABSOLUTE     
            XDATA   1043H     0001H     ABSOLUTE     
            XDATA   1044H     0001H     ABSOLUTE     
            XDATA   1045H     0001H     ABSOLUTE     
            XDATA   1046H     0001H     ABSOLUTE     
BL51 BANKED LINKER/LOCATER V5.12                                                      09/25/2020  15:06:33  PAGE 7


            XDATA   1047H     0001H     ABSOLUTE     
            XDATA   1048H     0001H     ABSOLUTE     
            XDATA   1049H     0001H     ABSOLUTE     
            XDATA   104AH     0001H     ABSOLUTE     
            XDATA   104BH     0001H     ABSOLUTE     
            XDATA   104CH     0001H     ABSOLUTE     
            XDATA   104DH     0001H     ABSOLUTE     
            XDATA   104EH     0001H     ABSOLUTE     
                    104FH     0009H                  *** GAP ***
            XDATA   1058H     0001H     ABSOLUTE     
                    1059H     00A7H                  *** GAP ***
            XDATA   1100H     0001H     ABSOLUTE     
            XDATA   1101H     0001H     ABSOLUTE     
            XDATA   1102H     0001H     ABSOLUTE     
            XDATA   1103H     0001H     ABSOLUTE     
            XDATA   1104H     0001H     ABSOLUTE     
            XDATA   1105H     0001H     ABSOLUTE     
            XDATA   1106H     0001H     ABSOLUTE     
            XDATA   1107H     0001H     ABSOLUTE     
            XDATA   1108H     0001H     ABSOLUTE     
            XDATA   1109H     0001H     ABSOLUTE     
            XDATA   110AH     0001H     ABSOLUTE     
            XDATA   110BH     0001H     ABSOLUTE     
            XDATA   110CH     0001H     ABSOLUTE     
            XDATA   110DH     0001H     ABSOLUTE     
            XDATA   110EH     0001H     ABSOLUTE     
            XDATA   110FH     0001H     ABSOLUTE     
            XDATA   1110H     0001H     ABSOLUTE     
            XDATA   1111H     0001H     ABSOLUTE     
            XDATA   1112H     0001H     ABSOLUTE     
                    1113H     0001H                  *** GAP ***
            XDATA   1114H     0001H     ABSOLUTE     
            XDATA   1115H     0001H     ABSOLUTE     
            XDATA   1116H     0001H     ABSOLUTE     
            XDATA   1117H     0001H     ABSOLUTE     
            XDATA   1118H     0001H     ABSOLUTE     
            XDATA   1119H     0001H     ABSOLUTE     
            XDATA   111AH     0001H     ABSOLUTE     
            XDATA   111BH     0001H     ABSOLUTE     
            XDATA   111CH     0001H     ABSOLUTE     
            XDATA   111DH     0001H     ABSOLUTE     
            XDATA   111EH     0001H     ABSOLUTE     
            XDATA   111FH     0001H     ABSOLUTE     
            XDATA   1120H     0001H     ABSOLUTE     
            XDATA   1121H     0001H     ABSOLUTE     
            XDATA   1122H     0001H     ABSOLUTE     
            XDATA   1123H     0001H     ABSOLUTE     
            XDATA   1124H     0001H     ABSOLUTE     
            XDATA   1125H     0001H     ABSOLUTE     
            XDATA   1126H     0001H     ABSOLUTE     
            XDATA   1127H     0001H     ABSOLUTE     
                    1128H     03D8H                  *** GAP ***
            XDATA   1500H     0001H     ABSOLUTE     
            XDATA   1501H     0001H     ABSOLUTE     
            XDATA   1502H     0001H     ABSOLUTE     
            XDATA   1503H     0001H     ABSOLUTE     
            XDATA   1504H     0001H     ABSOLUTE     
BL51 BANKED LINKER/LOCATER V5.12                                                      09/25/2020  15:06:33  PAGE 8


            XDATA   1505H     0001H     ABSOLUTE     
            XDATA   1506H     0001H     ABSOLUTE     
            XDATA   1507H     0001H     ABSOLUTE     
            XDATA   1508H     0001H     ABSOLUTE     
                    1509H     0007H                  *** GAP ***
            XDATA   1510H     0001H     ABSOLUTE     
            XDATA   1511H     0001H     ABSOLUTE     
            XDATA   1512H     0001H     ABSOLUTE     
            XDATA   1513H     0001H     ABSOLUTE     
            XDATA   1514H     0001H     ABSOLUTE     
            XDATA   1515H     0001H     ABSOLUTE     
            XDATA   1516H     0001H     ABSOLUTE     
            XDATA   1517H     0001H     ABSOLUTE     
            XDATA   1518H     0001H     ABSOLUTE     
            XDATA   1519H     0001H     ABSOLUTE     
                    151AH     0006H                  *** GAP ***
            XDATA   1520H     0001H     ABSOLUTE     
            XDATA   1521H     0001H     ABSOLUTE     
                    1522H     02DEH                  *** GAP ***
            XDATA   1800H     0001H     ABSOLUTE     
            XDATA   1801H     0001H     ABSOLUTE     
            XDATA   1802H     0001H     ABSOLUTE     
                    1803H     02FDH                  *** GAP ***
            XDATA   1B00H     0001H     ABSOLUTE     
            XDATA   1B01H     0001H     ABSOLUTE     
            XDATA   1B02H     0001H     ABSOLUTE     
            XDATA   1B03H     0001H     ABSOLUTE     
            XDATA   1B04H     0001H     ABSOLUTE     
            XDATA   1B05H     0001H     ABSOLUTE     
            XDATA   1B06H     0001H     ABSOLUTE     
            XDATA   1B07H     0001H     ABSOLUTE     
            XDATA   1B08H     0001H     ABSOLUTE     
            XDATA   1B09H     0001H     ABSOLUTE     
            XDATA   1B0AH     0001H     ABSOLUTE     
            XDATA   1B0BH     0001H     ABSOLUTE     
            XDATA   1B0CH     0001H     ABSOLUTE     
            XDATA   1B0DH     0001H     ABSOLUTE     
            XDATA   1B0EH     0001H     ABSOLUTE     
                    1B0FH     0001H                  *** GAP ***
            XDATA   1B10H     0001H     ABSOLUTE     
            XDATA   1B11H     0001H     ABSOLUTE     
            XDATA   1B12H     0001H     ABSOLUTE     
                    1B13H     00EDH                  *** GAP ***
            XDATA   1C00H     0001H     ABSOLUTE     
            XDATA   1C01H     0001H     ABSOLUTE     
            XDATA   1C02H     0001H     ABSOLUTE     
            XDATA   1C03H     0001H     ABSOLUTE     
            XDATA   1C04H     0001H     ABSOLUTE     
            XDATA   1C05H     0001H     ABSOLUTE     
            XDATA   1C06H     0001H     ABSOLUTE     
            XDATA   1C07H     0001H     ABSOLUTE     
                    1C08H     0002H                  *** GAP ***
            XDATA   1C0AH     0001H     ABSOLUTE     
                    1C0BH     0005H                  *** GAP ***
            XDATA   1C10H     0001H     ABSOLUTE     
            XDATA   1C11H     0001H     ABSOLUTE     
            XDATA   1C12H     0001H     ABSOLUTE     
BL51 BANKED LINKER/LOCATER V5.12                                                      09/25/2020  15:06:33  PAGE 9


            XDATA   1C13H     0001H     ABSOLUTE     
            XDATA   1C14H     0001H     ABSOLUTE     
            XDATA   1C15H     0001H     ABSOLUTE     
            XDATA   1C16H     0001H     ABSOLUTE     
            XDATA   1C17H     0001H     ABSOLUTE     
            XDATA   1C18H     0001H     ABSOLUTE     
                    1C19H     0002H                  *** GAP ***
            XDATA   1C1BH     0001H     ABSOLUTE     
                    1C1CH     0005H                  *** GAP ***
            XDATA   1C21H     0001H     ABSOLUTE     
            XDATA   1C22H     0001H     ABSOLUTE     
            XDATA   1C23H     0001H     ABSOLUTE     
            XDATA   1C24H     0001H     ABSOLUTE     
            XDATA   1C25H     0001H     ABSOLUTE     
            XDATA   1C26H     0001H     ABSOLUTE     
            XDATA   1C27H     0001H     ABSOLUTE     
            XDATA   1C28H     0001H     ABSOLUTE     
            XDATA   1C29H     0001H     ABSOLUTE     
            XDATA   1C2AH     0001H     ABSOLUTE     
            XDATA   1C2BH     0001H     ABSOLUTE     
            XDATA   1C2CH     0001H     ABSOLUTE     
            XDATA   1C2DH     0001H     ABSOLUTE     
            XDATA   1C2EH     0001H     ABSOLUTE     
            XDATA   1C2FH     0001H     ABSOLUTE     
            XDATA   1C30H     0001H     ABSOLUTE     
            XDATA   1C31H     0001H     ABSOLUTE     
            XDATA   1C32H     0001H     ABSOLUTE     
            XDATA   1C33H     0001H     ABSOLUTE     
                    1C34H     00CCH                  *** GAP ***
            XDATA   1D00H     0001H     ABSOLUTE     
            XDATA   1D01H     0001H     ABSOLUTE     
            XDATA   1D02H     0001H     ABSOLUTE     
            XDATA   1D03H     0001H     ABSOLUTE     
            XDATA   1D04H     0001H     ABSOLUTE     
                    1D05H     0002H                  *** GAP ***
            XDATA   1D07H     0001H     ABSOLUTE     
            XDATA   1D08H     0001H     ABSOLUTE     
            XDATA   1D09H     0001H     ABSOLUTE     
            XDATA   1D0AH     0001H     ABSOLUTE     
                    1D0BH     00F5H                  *** GAP ***
            XDATA   1E00H     0001H     ABSOLUTE     
            XDATA   1E01H     0001H     ABSOLUTE     
            XDATA   1E02H     0001H     ABSOLUTE     
            XDATA   1E03H     0001H     ABSOLUTE     
            XDATA   1E04H     0001H     ABSOLUTE     
            XDATA   1E05H     0001H     ABSOLUTE     
            XDATA   1E06H     0001H     ABSOLUTE     
                    1E07H     0001H                  *** GAP ***
            XDATA   1E08H     0001H     ABSOLUTE     
                    1E09H     00F8H                  *** GAP ***
            XDATA   1F01H     0001H     ABSOLUTE     
            XDATA   1F02H     0001H     ABSOLUTE     
            XDATA   1F03H     0001H     ABSOLUTE     
            XDATA   1F04H     0001H     ABSOLUTE     
            XDATA   1F05H     0001H     ABSOLUTE     
            XDATA   1F06H     0001H     ABSOLUTE     
            XDATA   1F07H     0001H     ABSOLUTE     
BL51 BANKED LINKER/LOCATER V5.12                                                      09/25/2020  15:06:33  PAGE 10


            XDATA   1F08H     0001H     ABSOLUTE     
            XDATA   1F09H     0001H     ABSOLUTE     
                    1F0AH     00F6H                  *** GAP ***
            XDATA   2000H     0001H     ABSOLUTE     
            XDATA   2001H     0001H     ABSOLUTE     
            XDATA   2002H     0001H     ABSOLUTE     
                    2003H     0003H                  *** GAP ***
            XDATA   2006H     0001H     ABSOLUTE     
            XDATA   2007H     0001H     ABSOLUTE     
            XDATA   2008H     0001H     ABSOLUTE     
            XDATA   2009H     0001H     ABSOLUTE     
                    200AH     0001H                  *** GAP ***
            XDATA   200BH     0001H     ABSOLUTE     
                    200CH     0001H                  *** GAP ***
            XDATA   200DH     0001H     ABSOLUTE     
                    200EH     0001H                  *** GAP ***
            XDATA   200FH     0001H     ABSOLUTE     
                    2010H     0001H                  *** GAP ***
            XDATA   2011H     0001H     ABSOLUTE     
            XDATA   2012H     0001H     ABSOLUTE     
                    2013H     0001H                  *** GAP ***
            XDATA   2014H     0001H     ABSOLUTE     
            XDATA   2015H     0001H     ABSOLUTE     
            XDATA   2016H     0001H     ABSOLUTE     
                    2017H     0269H                  *** GAP ***
            XDATA   2280H     0001H     ABSOLUTE     
            XDATA   2281H     0001H     ABSOLUTE     
            XDATA   2282H     0001H     ABSOLUTE     
            XDATA   2283H     003DH     ABSOLUTE     
                    22C0H     0040H                  *** GAP ***
            XDATA   2300H     0001H     ABSOLUTE     
            XDATA   2301H     0001H     ABSOLUTE     
            XDATA   2302H     0001H     ABSOLUTE     
            XDATA   2303H     0001H     ABSOLUTE     
            XDATA   2304H     0001H     ABSOLUTE     
            XDATA   2305H     0001H     ABSOLUTE     
            XDATA   2306H     0001H     ABSOLUTE     
            XDATA   2307H     0001H     ABSOLUTE     
                    2308H     02F8H                  *** GAP ***
            XDATA   2600H     0001H     ABSOLUTE     
            XDATA   2601H     0001H     ABSOLUTE     
            XDATA   2602H     0001H     ABSOLUTE     
            XDATA   2603H     0001H     ABSOLUTE     
            XDATA   2604H     0001H     ABSOLUTE     
                    2605H     000BH                  *** GAP ***
            XDATA   2610H     0001H     ABSOLUTE     
            XDATA   2611H     0001H     ABSOLUTE     
            XDATA   2612H     0001H     ABSOLUTE     
            XDATA   2613H     0001H     ABSOLUTE     
            XDATA   2614H     0001H     ABSOLUTE     
                    2615H     00EBH                  *** GAP ***
            XDATA   2700H     0001H     ABSOLUTE     
            XDATA   2701H     0001H     ABSOLUTE     
            XDATA   2702H     0001H     ABSOLUTE     
            XDATA   2703H     0001H     ABSOLUTE     
            XDATA   2704H     0001H     ABSOLUTE     
            XDATA   2705H     0001H     ABSOLUTE     
BL51 BANKED LINKER/LOCATER V5.12                                                      09/25/2020  15:06:33  PAGE 11


            XDATA   2706H     0001H     ABSOLUTE     
            XDATA   2707H     0001H     ABSOLUTE     
                    2708H     00F8H                  *** GAP ***
            XDATA   2800H     0001H     ABSOLUTE     
            XDATA   2801H     0001H     ABSOLUTE     
            XDATA   2802H     0001H     ABSOLUTE     
            XDATA   2803H     0001H     ABSOLUTE     
            XDATA   2804H     0001H     ABSOLUTE     
            XDATA   2805H     0001H     ABSOLUTE     
            XDATA   2806H     0001H     ABSOLUTE     
            XDATA   2807H     0001H     ABSOLUTE     
                    2808H     00FFH                  *** GAP ***
            XDATA   2907H     0001H     ABSOLUTE     
                    2908H     000BH                  *** GAP ***
            XDATA   2913H     0001H     ABSOLUTE     
                    2914H     000FH                  *** GAP ***
            XDATA   2923H     0001H     ABSOLUTE     
                    2924H     0001H                  *** GAP ***
            XDATA   2925H     0001H     ABSOLUTE     
            XDATA   2926H     0001H     ABSOLUTE     
            XDATA   2927H     0001H     ABSOLUTE     
            XDATA   2928H     0001H     ABSOLUTE     
            XDATA   2929H     0001H     ABSOLUTE     
            XDATA   292AH     0001H     ABSOLUTE     
            XDATA   292BH     0001H     ABSOLUTE     
            XDATA   292CH     0001H     ABSOLUTE     
            XDATA   292DH     0001H     ABSOLUTE     
                    292EH     0002H                  *** GAP ***
            XDATA   2930H     0001H     ABSOLUTE     
                    2931H     002FH                  *** GAP ***
            XDATA   2960H     0001H     ABSOLUTE     
            XDATA   2961H     0001H     ABSOLUTE     
            XDATA   2962H     0001H     ABSOLUTE     
            XDATA   2963H     0001H     ABSOLUTE     
                    2964H     000CH                  *** GAP ***
            XDATA   2970H     0001H     ABSOLUTE     
                    2971H     0005H                  *** GAP ***
            XDATA   2976H     0001H     ABSOLUTE     
                    2977H     0019H                  *** GAP ***
            XDATA   2990H     0001H     ABSOLUTE     
            XDATA   2991H     0001H     ABSOLUTE     
            XDATA   2992H     0001H     ABSOLUTE     
            XDATA   2993H     0001H     ABSOLUTE     
            XDATA   2994H     0001H     ABSOLUTE     
            XDATA   2995H     0001H     ABSOLUTE     
            XDATA   2996H     0001H     ABSOLUTE     
            XDATA   2997H     0001H     ABSOLUTE     
            XDATA   2998H     0001H     ABSOLUTE     
            XDATA   2999H     0001H     ABSOLUTE     
            XDATA   299AH     0001H     ABSOLUTE     
                    299BH     0005H                  *** GAP ***
            XDATA   29A0H     0001H     ABSOLUTE     
            XDATA   29A1H     0001H     ABSOLUTE     
                    29A2H     000EH                  *** GAP ***
            XDATA   29B0H     0001H     ABSOLUTE     
            XDATA   29B1H     0001H     ABSOLUTE     
            XDATA   29B2H     0001H     ABSOLUTE     
BL51 BANKED LINKER/LOCATER V5.12                                                      09/25/2020  15:06:33  PAGE 12


            XDATA   29B3H     0001H     ABSOLUTE     
            XDATA   29B4H     0001H     ABSOLUTE     
                    29B5H     0003H                  *** GAP ***
            XDATA   29B8H     0001H     ABSOLUTE     
            XDATA   29B9H     0001H     ABSOLUTE     
            XDATA   29BAH     0001H     ABSOLUTE     
            XDATA   29BBH     0001H     ABSOLUTE     
            XDATA   29BCH     0001H     ABSOLUTE     
            XDATA   29BDH     0001H     ABSOLUTE     
                    29BEH     0001H                  *** GAP ***
            XDATA   29BFH     0001H     ABSOLUTE     
            XDATA   29C0H     0001H     ABSOLUTE     
            XDATA   29C1H     0001H     ABSOLUTE     
            XDATA   29C2H     0001H     ABSOLUTE     
            XDATA   29C3H     0001H     ABSOLUTE     
            XDATA   29C4H     0001H     ABSOLUTE     
                    29C5H     0003H                  *** GAP ***
            XDATA   29C8H     0001H     ABSOLUTE     
            XDATA   29C9H     0001H     ABSOLUTE     
            XDATA   29CAH     0001H     ABSOLUTE     
            XDATA   29CBH     0001H     ABSOLUTE     
            XDATA   29CCH     0001H     ABSOLUTE     
            XDATA   29CDH     0001H     ABSOLUTE     
            XDATA   29CEH     0001H     ABSOLUTE     
            XDATA   29CFH     0001H     ABSOLUTE     
                    29D0H     0019H                  *** GAP ***
            XDATA   29E9H     0001H     ABSOLUTE     
                    29EAH     0006H                  *** GAP ***
            XDATA   29F0H     0001H     ABSOLUTE     
                    29F1H     0001H                  *** GAP ***
            XDATA   29F2H     0001H     ABSOLUTE     
                    29F3H     0001H                  *** GAP ***
            XDATA   29F4H     0001H     ABSOLUTE     
                    29F5H     0002H                  *** GAP ***
            XDATA   29F7H     0001H     ABSOLUTE     
                    29F8H     0008H                  *** GAP ***
            XDATA   2A00H     0001H     ABSOLUTE     
            XDATA   2A01H     0001H     ABSOLUTE     
                    2A02H     0008H                  *** GAP ***
            XDATA   2A0AH     0001H     ABSOLUTE     
            XDATA   2A0BH     0001H     ABSOLUTE     
                    2A0CH     0001H                  *** GAP ***
            XDATA   2A0DH     0001H     ABSOLUTE     
            XDATA   2A0EH     0001H     ABSOLUTE     
            XDATA   2A0FH     0001H     ABSOLUTE     
            XDATA   2A10H     0001H     ABSOLUTE     
            XDATA   2A11H     0001H     ABSOLUTE     
            XDATA   2A12H     0001H     ABSOLUTE     
            XDATA   2A13H     0001H     ABSOLUTE     
            XDATA   2A14H     0001H     ABSOLUTE     
            XDATA   2A15H     0001H     ABSOLUTE     
            XDATA   2A16H     0001H     ABSOLUTE     
            XDATA   2A17H     0001H     ABSOLUTE     
            XDATA   2A18H     0001H     ABSOLUTE     
            XDATA   2A19H     0001H     ABSOLUTE     
            XDATA   2A1AH     0001H     ABSOLUTE     
            XDATA   2A1BH     0001H     ABSOLUTE     
BL51 BANKED LINKER/LOCATER V5.12                                                      09/25/2020  15:06:33  PAGE 13


            XDATA   2A1CH     0001H     ABSOLUTE     
            XDATA   2A1DH     0001H     ABSOLUTE     
                    2A1EH     0002H                  *** GAP ***
            XDATA   2A20H     0001H     ABSOLUTE     
            XDATA   2A21H     0001H     ABSOLUTE     
            XDATA   2A22H     0001H     ABSOLUTE     
            XDATA   2A23H     0001H     ABSOLUTE     
            XDATA   2A24H     0001H     ABSOLUTE     
            XDATA   2A25H     0001H     ABSOLUTE     
                    2A26H     0003H                  *** GAP ***
            XDATA   2A29H     0001H     ABSOLUTE     
            XDATA   2A2AH     0001H     ABSOLUTE     
            XDATA   2A2BH     0001H     ABSOLUTE     
                    2A2CH     0024H                  *** GAP ***
            XDATA   2A50H     0001H     ABSOLUTE     
            XDATA   2A51H     0001H     ABSOLUTE     
                    2A52H     0003H                  *** GAP ***
            XDATA   2A55H     0001H     ABSOLUTE     
                    2A56H     0006H                  *** GAP ***
            XDATA   2A5CH     0001H     ABSOLUTE     
                    2A5DH     0003H                  *** GAP ***
            XDATA   2A60H     0001H     ABSOLUTE     
            XDATA   2A61H     0001H     ABSOLUTE     
            XDATA   2A62H     0001H     ABSOLUTE     
            XDATA   2A63H     0001H     ABSOLUTE     
            XDATA   2A64H     0001H     ABSOLUTE     
            XDATA   2A65H     0001H     ABSOLUTE     
            XDATA   2A66H     0001H     ABSOLUTE     
                    2A67H     0001H                  *** GAP ***
            XDATA   2A68H     0001H     ABSOLUTE     
            XDATA   2A69H     0001H     ABSOLUTE     
            XDATA   2A6AH     0001H     ABSOLUTE     
            XDATA   2A6BH     0001H     ABSOLUTE     
            XDATA   2A6CH     0001H     ABSOLUTE     
            XDATA   2A6DH     0001H     ABSOLUTE     
            XDATA   2A6EH     0001H     ABSOLUTE     
                    2A6FH     0001H                  *** GAP ***
            XDATA   2A70H     0001H     ABSOLUTE     
            XDATA   2A71H     0001H     ABSOLUTE     
            XDATA   2A72H     0001H     ABSOLUTE     
            XDATA   2A73H     0001H     ABSOLUTE     
            XDATA   2A74H     0001H     ABSOLUTE     
            XDATA   2A75H     0001H     ABSOLUTE     
            XDATA   2A76H     0001H     ABSOLUTE     
                    2A77H     0011H                  *** GAP ***
            XDATA   2A88H     0001H     ABSOLUTE     
            XDATA   2A89H     0001H     ABSOLUTE     
            XDATA   2A8AH     0001H     ABSOLUTE     
            XDATA   2A8BH     0001H     ABSOLUTE     
            XDATA   2A8CH     0001H     ABSOLUTE     
            XDATA   2A8DH     0001H     ABSOLUTE     
            XDATA   2A8EH     0001H     ABSOLUTE     
            XDATA   2A8FH     0001H     ABSOLUTE     
            XDATA   2A90H     0001H     ABSOLUTE     
            XDATA   2A91H     0001H     ABSOLUTE     
            XDATA   2A92H     0001H     ABSOLUTE     
                    2A93H     0001H                  *** GAP ***
BL51 BANKED LINKER/LOCATER V5.12                                                      09/25/2020  15:06:33  PAGE 14


            XDATA   2A94H     0001H     ABSOLUTE     
            XDATA   2A95H     0001H     ABSOLUTE     
            XDATA   2A96H     0001H     ABSOLUTE     
                    2A97H     0001H                  *** GAP ***
            XDATA   2A98H     0001H     ABSOLUTE     
            XDATA   2A99H     0001H     ABSOLUTE     
                    2A9AH     0002H                  *** GAP ***
            XDATA   2A9CH     0001H     ABSOLUTE     
                    2A9DH     0001H                  *** GAP ***
            XDATA   2A9EH     0001H     ABSOLUTE     
            XDATA   2A9FH     0001H     ABSOLUTE     
                    2AA0H     000CH                  *** GAP ***
            XDATA   2AACH     0001H     ABSOLUTE     
                    2AADH     0003H                  *** GAP ***
            XDATA   2AB0H     0001H     ABSOLUTE     
            XDATA   2AB1H     0001H     ABSOLUTE     
            XDATA   2AB2H     0001H     ABSOLUTE     
            XDATA   2AB3H     0001H     ABSOLUTE     
            XDATA   2AB4H     0001H     ABSOLUTE     
            XDATA   2AB5H     0001H     ABSOLUTE     
                    2AB6H     014AH                  *** GAP ***
            XDATA   2C00H     0001H     ABSOLUTE     
            XDATA   2C01H     0001H     ABSOLUTE     
            XDATA   2C02H     0001H     ABSOLUTE     
            XDATA   2C03H     0001H     ABSOLUTE     
            XDATA   2C04H     0001H     ABSOLUTE     
            XDATA   2C05H     0001H     ABSOLUTE     
            XDATA   2C06H     0001H     ABSOLUTE     
            XDATA   2C07H     0001H     ABSOLUTE     

            * * * * * * *   C O D E   M E M O R Y   * * * * * * *
            CODE    0000H     0003H     ABSOLUTE     
            CODE    0003H     0003H     ABSOLUTE     
                    0006H     0005H                  *** GAP ***
            CODE    000BH     0003H     ABSOLUTE     
                    000EH     0005H                  *** GAP ***
            CODE    0013H     0003H     ABSOLUTE     
                    0016H     0005H                  *** GAP ***
            CODE    001BH     0003H     ABSOLUTE     
                    001EH     0005H                  *** GAP ***
            CODE    0023H     0003H     ABSOLUTE     
                    0026H     0005H                  *** GAP ***
            CODE    002BH     0003H     ABSOLUTE     
                    002EH     0012H                  *** GAP ***
            CODE    0040H     0027H     UNIT         ?CO?CORE_ITESTRING
                    0067H     0009H                  *** GAP ***
            CODE    0070H     0095H     UNIT         ?C_C51STARTUP
                    0105H     00FBH                  *** GAP ***
            CODE    0200H     009CH     UNIT         ?PR?MAIN?CORE_MAIN
                    029CH     0D64H                  *** GAP ***
            CODE    1000H     0001H     UNIT         ?PR?IRQ_INT24_KBCIBF?CORE_IRQ
            CODE    1001H     0010H     UNIT         ?PR?IRQ_IBF2?CORE_IRQ
            CODE    1011H     0010H     UNIT         ?PR?IRQ_IBF3?CORE_IRQ
            CODE    1021H     0001H     UNIT         ?PR?IRQ_ADC?CORE_IRQ
            CODE    1022H     0015H     UNIT         ?PR?IRQ_SMB0?CORE_IRQ
            CODE    1037H     0016H     UNIT         ?PR?IRQ_SMB1?CORE_IRQ
            CODE    104DH     0014H     UNIT         ?PR?IRQ_SMB2?CORE_IRQ
BL51 BANKED LINKER/LOCATER V5.12                                                      09/25/2020  15:06:33  PAGE 15


            CODE    1061H     0001H     UNIT         ?PR?IRQ_CIR?CORE_IRQ
            CODE    1062H     0001H     UNIT         ?PR?IRQNULL?CORE_IRQ
            CODE    1063H     0001H     UNIT         ?PR?IRQUART1?CORE_IRQ
            CODE    1064H     0001H     UNIT         ?PR?IRQUART2?CORE_IRQ
            CODE    1065H     0018H     UNIT         ?PR?IRQ_EXTTIMER1?CORE_IRQ
            CODE    107DH     0001H     UNIT         ?PR?ISR_INT0?CORE_IRQ
            CODE    107EH     001DH     UNIT         ?PR?ISR_TMR0?CORE_IRQ
            CODE    109BH     0054H     UNIT         ?PR?ISR_INT1?CORE_IRQ
            CODE    10EFH     0001H     UNIT         ?PR?ISR_TMR1?CORE_IRQ
            CODE    10F0H     0001H     UNIT         ?PR?ISR_UART?CORE_IRQ
            CODE    10F1H     0001H     UNIT         ?PR?ISR_TMR2?CORE_IRQ
            CODE    10F2H     0007H     UNIT         ?PR?DISABLEALLINTERRUPT?CORE_IRQ
            CODE    10F9H     0005H     UNIT         ?PR?ENABLEALLINTERRUPT?CORE_IRQ
            CODE    10FEH     00D0H     UNIT         ?CO?CORE_IRQ
            CODE    11CEH     008CH     UNIT         ?PR?MAIN_SERVICE?CORE_MAIN
            CODE    125AH     0003H     UNIT         ?PR?SERVICE_000?CORE_MAIN
            CODE    125DH     0001H     UNIT         ?PR?SERVICE_001?CORE_MAIN
            CODE    125EH     0012H     UNIT         ?PR?SERVICE_002?CORE_MAIN
            CODE    1270H     0003H     UNIT         ?PR?SERVICE_003?CORE_MAIN
            CODE    1273H     0001H     UNIT         ?PR?SERVICE_004?CORE_MAIN
            CODE    1274H     00DDH     UNIT         ?PR?SERVICE_005?CORE_MAIN
            CODE    1351H     0001H     UNIT         ?PR?SERVICE_006?CORE_MAIN
            CODE    1352H     0001H     UNIT         ?PR?SERVICE_007?CORE_MAIN
            CODE    1353H     0001H     UNIT         ?PR?SERVICE_008?CORE_MAIN
            CODE    1354H     0001H     UNIT         ?PR?SERVICE_009?CORE_MAIN
            CODE    1355H     0001H     UNIT         ?PR?SERVICE_00A?CORE_MAIN
            CODE    1356H     0001H     UNIT         ?PR?SERVICE_00B?CORE_MAIN
            CODE    1357H     0001H     UNIT         ?PR?SERVICE_00C?CORE_MAIN
            CODE    1358H     0001H     UNIT         ?PR?SERVICE_00D?CORE_MAIN
            CODE    1359H     0001H     UNIT         ?PR?SERVICE_00E?CORE_MAIN
            CODE    135AH     0001H     UNIT         ?PR?SERVICE_00F?CORE_MAIN
            CODE    135BH     0020H     UNIT         ?CO?CORE_MAIN
            CODE    137BH     0020H     UNIT         ?PR?CORE_MAIN
            CODE    139BH     005EH     UNIT         ?PR?KERNEL_INITIALIZATION?CORE_INIT
            CODE    13F9H     0021H     UNIT         ?PR?INIT_CLEARRAM?CORE_INIT
            CODE    141AH     0024H     UNIT         ?PR?ENABLE_SMLINK1_MAPPING_TO_TMPIN2?CORE_INIT
            CODE    143EH     001AH     UNIT         ?PR?RESET_INITIALIZATION?CORE_INIT
            CODE    1458H     0018H     UNIT         ?PR?INIT_TIMERS?CORE_INIT
            CODE    1470H     0020H     UNIT         ?PR?_SET_T1_TIMEOUT?CORE_INIT
            CODE    1490H     0009H     UNIT         ?PR?LOAD_TIMER_A?CORE_INIT
            CODE    1499H     0009H     UNIT         ?PR?LOAD_TIMER_A_1MS?CORE_INIT
            CODE    14A2H     00F0H     UNIT         ?PR?INITSMBUS?CORE_INIT
            CODE    1592H     003BH     UNIT         ?PR?INITDAC?CORE_INIT
            CODE    15CDH     001CH     UNIT         ?PR?INITADC?CORE_INIT
            CODE    15E9H     0023H     UNIT         ?PR?INITFANCTL?CORE_INIT
            CODE    160CH     0035H     UNIT         ?PR?_VDELAY1MS?CORE_INIT
            CODE    1641H     0006H     UNIT         ?PR?_LED_SEG?CORE_INIT
            CODE    1647H     0015H     UNIT         ?PR?INITENTERDEEPSLEEP?CORE_INIT
            CODE    165CH     0012H     UNIT         ?PR?INITWAKEFROMDEEPSLEEP?CORE_INIT
            CODE    166EH     007EH     UNIT         ?PR?INIT_UART2?CORE_INIT
            CODE    16ECH     005FH     UNIT         ?PR?INIT_UART1?CORE_INIT
            CODE    174BH     0025H     UNIT         ?PR?SET_EXTTIMER1?CORE_INIT
            CODE    1770H     0017H     UNIT         ?PR?_READ_SPI?CORE_INIT
            CODE    1787H     0043H     UNIT         ?PR?INIT_BRAM?CORE_INIT
            CODE    17CAH     0008H     UNIT         ?PR?ENABLEKBCIBFINT?CORE_INIT
            CODE    17D2H     0007H     UNIT         ?PR?DISABLE_DCACHE?CORE_INIT
            CODE    17D9H     000EH     UNIT         ?PR?ENABLE_K8_FUNCTION?CORE_INIT
BL51 BANKED LINKER/LOCATER V5.12                                                      09/25/2020  15:06:33  PAGE 16


            CODE    17E7H     0029H     UNIT         ?PR?CORE_INIT
            CODE    1810H     00F7H     UNIT         ?PR?_INPUTDEBOUNCE?CORE_MODULE
            CODE    1907H     0048H     UNIT         ?PR?OEM_CHECK1XBTN0?CORE_MODULE
            CODE    194FH     0048H     UNIT         ?PR?OEM_CHECK1XBTN1?CORE_MODULE
            CODE    1997H     0072H     UNIT         ?PR?INIT_EC_PWM?CORE_MODULE
            CODE    1A09H     0030H     UNIT         ?CO?CORE_MODULE
            CODE    1A39H     002FH     UNIT         ?PR?CORE_MODULE
            CODE    1A68H     000BH     UNIT         ?PR?FUNCAT_0XFE00?CORE_FLASH
            CODE    1A73H     0037H     UNIT         ?PR?SPI_READ_STATUS?CORE_FLASH
            CODE    1AAAH     00ABH     UNIT         ?PR?SPI_WRITE_STATUS?CORE_FLASH
            CODE    1B55H     0099H     UNIT         ?PR?SPI_READ_ID?CORE_FLASH
            CODE    1BEEH     009CH     UNIT         ?PR?SPI_READ_ID_CMDAB?CORE_FLASH
            CODE    1C8AH     0094H     UNIT         ?PR?SPI_ERASE?CORE_FLASH
            CODE    1D1EH     008FH     UNIT         ?PR?SPI_WRITE_ENABLE?CORE_FLASH
            CODE    1DADH     006FH     UNIT         ?PR?SPI_WRITE_DISABLE?CORE_FLASH
            CODE    1E1CH     00ADH     UNIT         ?PR?OTHER_SPI_WRITE_256BYTES?CORE_FLASH
            CODE    1EC9H     00EFH     UNIT         ?PR?SST_SPI_WRITE_256BYTES?CORE_FLASH
            CODE    1FB8H     00E8H     UNIT         ?PR?OLD_SST_SPI_WRITE_256BYTES?CORE_FLASH
            CODE    20A0H     0022H     UNIT         ?PR?SPI_WRITE_256BYTES?CORE_FLASH
            CODE    20C2H     00B0H     UNIT         ?PR?SPI_READ_256BYTES?CORE_FLASH
            CODE    2172H     003FH     UNIT         ?PR?_LOADSPIFUCNTORAM?CORE_FLASH
            CODE    21B1H     0015H     UNIT         ?PR?ITE_FLASH_UTILITY?CORE_FLASH
            CODE    21C6H     0024H     UNIT         ?PR?_DO_SPI_WRITE_STATUS?CORE_FLASH
            CODE    21EAH     001FH     UNIT         ?PR?DO_SPI_READ_STATUS?CORE_FLASH
            CODE    2209H     001FH     UNIT         ?PR?DO_SPI_READ_ID?CORE_FLASH
            CODE    2228H     001FH     UNIT         ?PR?DO_SPI_READ_ID_CMDAB?CORE_FLASH
            CODE    2247H     0034H     UNIT         ?PR?_DO_SPI_ERASE?CORE_FLASH
            CODE    227BH     0033H     UNIT         ?PR?_DO_SPI_WRITE_256BYTES?CORE_FLASH
            CODE    22AEH     0037H     UNIT         ?PR?_DO_SPI_READ_256BYTES?CORE_FLASH
            CODE    22E5H     001FH     UNIT         ?PR?DO_SPI_WRITE_ENABLE?CORE_FLASH
            CODE    2304H     001FH     UNIT         ?PR?DO_SPI_WRITE_DISABLE?CORE_FLASH
            CODE    2323H     001CH     UNIT         ?PR?_OEM_READ_SPI_256BYTES?CORE_FLASH
            CODE    233FH     0042H     UNIT         ?PR?_OEM_WRITE_SPI_256BYTES?CORE_FLASH
            CODE    2381H     0081H     UNIT         ?PR?_CACHEDMA?CORE_FLASH
            CODE    2402H     0021H     UNIT         ?PR?_EC_INDIRECT_READ_SPI?CORE_FLASH
            CODE    2423H     0018H     UNIT         ?CO?CORE_FLASH
            CODE    243BH     000EH     UNIT         ?PR?DELAYINACT?CORE_SMBUS
            CODE    2449H     00FAH     UNIT         ?PR?_RESETSMBUS?CORE_SMBUS
            CODE    2543H     01CEH     UNIT         ?PR?_BRWSMBUS?CORE_SMBUS
            CODE    2711H     0127H     UNIT         ?PR?_BRSMBUSBLOCK?CORE_SMBUS
            CODE    2838H     0177H     UNIT         ?PR?_BWSMBUSBLOCK?CORE_SMBUS
            CODE    29AFH     0037H     UNIT         ?PR?_CALCCRC8?CORE_SMBUS
            CODE    29E6H     0014H     UNIT         ?PR?_CHECKSMBUSFREE?CORE_SMBUS
            CODE    29FAH     0040H     UNIT         ?PR?_CHECKSMBUSINTERFACECANBEUSE?CORE_SMBUS
            CODE    2A3AH     00A6H     UNIT         ?PR?_BSMBUSSENDBYTE?CORE_SMBUS
            CODE    2AE0H     00C2H     UNIT         ?PR?_BSMBUSRECEIVEBYTE?CORE_SMBUS
            CODE    2BA2H     0007H     UNIT         ?PR?CORE_INIT_SMBUS?CORE_SMBUS
            CODE    2BA9H     010DH     UNIT         ?PR?_BI2CMASTERREAD?CORE_SMBUS
            CODE    2CB6H     00F2H     UNIT         ?PR?_BI2CMASTERWRITE?CORE_SMBUS
            CODE    2DA8H     0170H     UNIT         ?PR?_BI2CMASTERWRITETOREAD?CORE_SMBUS
            CODE    2F18H     007EH     UNIT         ?CO?CORE_SMBUS
            CODE    2F96H     01BDH     UNIT         ?PR?CORE_SMBUS
            CODE    3153H     000EH     UNIT         ?PR?SERVICE_PCI2?CORE_ACPI
            CODE    3161H     0007H     UNIT         ?PR?EC6266_CMD_80?CORE_ACPI
            CODE    3168H     0014H     UNIT         ?PR?EC62_DATA_STEP1?CORE_ACPI
            CODE    317CH     0007H     UNIT         ?PR?EC6266_CMD_81?CORE_ACPI
            CODE    3183H     000AH     UNIT         ?PR?EC62_DATA_STEP2?CORE_ACPI
BL51 BANKED LINKER/LOCATER V5.12                                                      09/25/2020  15:06:33  PAGE 17


            CODE    318DH     000EH     UNIT         ?PR?EC62_DATA_STEP3?CORE_ACPI
            CODE    319BH     0016H     UNIT         ?PR?EC6266_CMD_82?CORE_ACPI
            CODE    31B1H     000AH     UNIT         ?PR?EC6266_CMD_83?CORE_ACPI
            CODE    31BBH     0042H     UNIT         ?PR?EC6266_CMD_84?CORE_ACPI
            CODE    31FDH     0019H     UNIT         ?PR?SCI_RESPONSE?CORE_ACPI
            CODE    3216H     000DH     UNIT         ?PR?SCI_INTERRUPT?CORE_ACPI
            CODE    3223H     0014H     UNIT         ?PR?SMI_INTERRUPT?CORE_ACPI
            CODE    3237H     000AH     UNIT         ?PR?_LOOP_DELAY?CORE_ACPI
            CODE    3241H     002DH     UNIT         ?PR?READSCI_QUERYVALUE?CORE_ACPI
            CODE    326EH     004DH     UNIT         ?PR?_WRITESCI_QUERYVALUE?CORE_ACPI
            CODE    32BBH     0031H     UNIT         ?PR?READSMI_QUERYVALUE?CORE_ACPI
            CODE    32ECH     002AH     UNIT         ?PR?_WRITESMI_QUERYVALUE?CORE_ACPI
            CODE    3316H     0029H     UNIT         ?PR?CLEAREVENTBUFFER?CORE_ACPI
            CODE    333FH     003CH     UNIT         ?PR?SERVICE_EVENTCENTER?CORE_ACPI
            CODE    337BH     0037H     UNIT         ?PR?CHECKBURSTMODE?CORE_ACPI
            CODE    33B2H     000DH     UNIT         ?PR?VSETTOTALBURSTTIME?CORE_ACPI
            CODE    33BFH     0013H     UNIT         ?PR?EC_CMD_8X?CORE_ACPI
            CODE    33D2H     0059H     UNIT         ?PR?SERVICE_PCI2_MAIN?CORE_ACPI
            CODE    342BH     0060H     UNIT         ?CO?CORE_ACPI
            CODE    348BH     0029H     UNIT         ?PR?CORE_ACPI
            CODE    34B4H     000EH     UNIT         ?PR?SERVICE_PCI3?CORE_PMC2
            CODE    34C2H     0004H     UNIT         ?PR?EC686C_CMD_80?CORE_PMC2
            CODE    34C6H     0011H     UNIT         ?PR?EC68_DATA_STEP1?CORE_PMC2
            CODE    34D7H     0004H     UNIT         ?PR?EC686C_CMD_81?CORE_PMC2
            CODE    34DBH     0007H     UNIT         ?PR?EC68_DATA_STEP2?CORE_PMC2
            CODE    34E2H     000BH     UNIT         ?PR?EC68_DATA_STEP3?CORE_PMC2
            CODE    34EDH     0014H     UNIT         ?PR?EC686C_CMD_82?CORE_PMC2
            CODE    3501H     0008H     UNIT         ?PR?EC686C_CMD_83?CORE_PMC2
            CODE    3509H     0034H     UNIT         ?PR?PMC2_CHECKBURSTMODE?CORE_PMC2
            CODE    353DH     000DH     UNIT         ?PR?PMC2_VSETTOTALBURSTTIME?CORE_PMC2
            CODE    354AH     0013H     UNIT         ?PR?EC_PMC2_CMD_8X?CORE_PMC2
            CODE    355DH     0059H     UNIT         ?PR?SERVICE_PCI3_MAIN?CORE_PMC2
            CODE    35B6H     0060H     UNIT         ?CO?CORE_PMC2
            CODE    3616H     000DH     UNIT         ?PR?CORE_PMC2
            CODE    3623H     003FH     UNIT         ?PR?PECI_READPOWERUNIT?CORE_PECI
            CODE    3662H     00FFH     UNIT         ?PR?_PECI_RDPKGCONFIG?CORE_PECI
            CODE    3761H     00FBH     UNIT         ?PR?_PECI_WRPKGCONFIG?CORE_PECI
            CODE    385CH     0087H     UNIT         ?PR?_PECI_HOST_ACCESS_GETTEMP?CORE_PECI
            CODE    38E3H     0056H     UNIT         ?PR?CALC_UPDATE_PECI_TEMP?CORE_PECI
            CODE    3939H     002CH     UNIT         ?PR?PECI_READTARGETTEMP?CORE_PECI
            CODE    3965H     0018H     UNIT         ?PR?PECI_READTHERMMARGIN?CORE_PECI
            CODE    397DH     0064H     UNIT         ?PR?CORE_PECI
            CODE    39E1H     001FH     UNIT         ?PR?_UARTSENDDATA?CORE_UART
            CODE    3A00H     001FH     UNIT         ?PR?_UARTSENDDATA_UART1?CORE_UART
            CODE    3A1FH     003CH     UNIT         ?PR?_SENDCMD2SCALAR?CORE_UART
            CODE    3A5BH     001FH     UNIT         ?PR?CLEAR_UART_RX_BUFFER?CORE_UART
            CODE    3A7AH     001FH     UNIT         ?PR?CLEAR_UART_TX_BUFFER?CORE_UART
            CODE    3A99H     0002H     UNIT         ?PR?UART1_DATA_HANDLER?CORE_UART
            CODE    3A9BH     0002H     UNIT         ?PR?UART2_DATA_HANDLER?CORE_UART
            CODE    3A9DH     00A8H     UNIT         ?CO?CORE_UART
            CODE    3B45H     0049H     UNIT         ?PR?_RAMDEBUG?OEM_MAIN
            CODE    3B8EH     0013H     UNIT         ?PR?_RAMDEBUGWORD?OEM_MAIN
            CODE    3BA1H     004AH     UNIT         ?PR?_RAMDEBUGDWORD?OEM_MAIN
            CODE    3BEBH     004AH     UNIT         ?PR?OEM_HOOK_1MS_EVENT?OEM_MAIN
            CODE    3C35H     0006H     UNIT         ?PR?OEM_HOOK_5MS_EVENT?OEM_MAIN
            CODE    3C3BH     0001H     UNIT         ?PR?OEM_HOOK_10MS_EVENT?OEM_MAIN
            CODE    3C3CH     0001H     UNIT         ?PR?OEM_HOOK_50MS_EVENTA?OEM_MAIN
BL51 BANKED LINKER/LOCATER V5.12                                                      09/25/2020  15:06:33  PAGE 18


            CODE    3C3DH     0001H     UNIT         ?PR?OEM_HOOK_50MS_EVENTB?OEM_MAIN
            CODE    3C3EH     0001H     UNIT         ?PR?OEM_HOOK_50MS_EVENTC?OEM_MAIN
            CODE    3C3FH     0009H     UNIT         ?PR?OEM_HOOK_100MS_EVENTA?OEM_MAIN
            CODE    3C48H     0001H     UNIT         ?PR?OEM_HOOK_100MS_EVENTB?OEM_MAIN
            CODE    3C49H     0001H     UNIT         ?PR?OEM_HOOK_100MS_EVENTC?OEM_MAIN
            CODE    3C4AH     0001H     UNIT         ?PR?OEM_HOOK_125MS_EVENT?OEM_MAIN
            CODE    3C4BH     0001H     UNIT         ?PR?OEM_HOOK_250MS_EVENT?OEM_MAIN
            CODE    3C4CH     0001H     UNIT         ?PR?OEM_HOOK_500MS_EVENTA?OEM_MAIN
            CODE    3C4DH     0001H     UNIT         ?PR?OEM_HOOK_500MS_EVENTB?OEM_MAIN
            CODE    3C4EH     0001H     UNIT         ?PR?OEM_HOOK_500MS_EVENTC?OEM_MAIN
            CODE    3C4FH     001CH     UNIT         ?PR?OEM_HOOK_1S_EVENTA?OEM_MAIN
            CODE    3C6BH     0001H     UNIT         ?PR?OEM_HOOK_1S_EVENTB?OEM_MAIN
            CODE    3C6CH     0001H     UNIT         ?PR?OEM_HOOK_1S_EVENTC?OEM_MAIN
            CODE    3C6DH     0001H     UNIT         ?PR?OEM_HOOK_1MIN_EVENT?OEM_MAIN
            CODE    3C6EH     0001H     UNIT         ?PR?OEM_MAIN_TEST_FUNC?OEM_MAIN
            CODE    3C6FH     0001H     UNIT         ?PR?CHECKRESETSOURCE?OEM_MAIN
            CODE    3C70H     0029H     UNIT         ?PR?_DELAY15US?OEM_MAIN
            CODE    3C99H     000FH     UNIT         ?PR?OEM_MAIN
            CODE    3CA8H     0008H     UNIT         ?PR?PWR_LED_ON?OEM_GPIO
            CODE    3CB0H     0008H     UNIT         ?PR?PWR_LED_OFF?OEM_GPIO
            CODE    3CB8H     00A1H     UNIT         ?PR?INITIALIZE_GPIO_PIN_STATE?OEM_GPIO
            CODE    3D59H     000CH     UNIT         ?PR?OEM_GPIO
            CODE    3D65H     0006H     UNIT         ?PR?_READ_MAPECSPACE?OEM_6266
            CODE    3D6BH     0006H     UNIT         ?PR?_WRITE_MAPECSPACE?OEM_6266
            CODE    3D71H     0001H     UNIT         ?PR?EC6266_CMD_85?OEM_6266
            CODE    3D72H     0001H     UNIT         ?PR?EC6266_CMD_86?OEM_6266
            CODE    3D73H     0001H     UNIT         ?PR?EC6266_CMD_87?OEM_6266
            CODE    3D74H     0008H     UNIT         ?PR?EC6266_CMD_88?OEM_6266
            CODE    3D7CH     0008H     UNIT         ?PR?EC6266_CMD_89?OEM_6266
            CODE    3D84H     0014H     UNIT         ?PR?EC6266_CMD_8A?OEM_6266
            CODE    3D98H     0001H     UNIT         ?PR?EC6266_CMD_8B?OEM_6266
            CODE    3D99H     0001H     UNIT         ?PR?EC6266_CMD_8C?OEM_6266
            CODE    3D9AH     0001H     UNIT         ?PR?EC6266_CMD_8D?OEM_6266
            CODE    3D9BH     0001H     UNIT         ?PR?EC6266_CMD_8E?OEM_6266
            CODE    3D9CH     0001H     UNIT         ?PR?EC6266_CMD_8F?OEM_6266
            CODE    3D9DH     0001H     UNIT         ?PR?EC6266_CMD_90?OEM_6266
            CODE    3D9EH     0001H     UNIT         ?PR?EC6266_CMD_91?OEM_6266
            CODE    3D9FH     0001H     UNIT         ?PR?EC6266_CMD_92?OEM_6266
            CODE    3DA0H     0001H     UNIT         ?PR?EC6266_CMD_93?OEM_6266
            CODE    3DA1H     0001H     UNIT         ?PR?EC6266_CMD_94?OEM_6266
            CODE    3DA2H     0001H     UNIT         ?PR?EC6266_CMD_95?OEM_6266
            CODE    3DA3H     0001H     UNIT         ?PR?EC6266_CMD_96?OEM_6266
            CODE    3DA4H     0001H     UNIT         ?PR?EC6266_CMD_97?OEM_6266
            CODE    3DA5H     0001H     UNIT         ?PR?EC6266_CMD_98?OEM_6266
            CODE    3DA6H     0001H     UNIT         ?PR?EC6266_CMD_99?OEM_6266
            CODE    3DA7H     0001H     UNIT         ?PR?EC6266_CMD_9A?OEM_6266
            CODE    3DA8H     0001H     UNIT         ?PR?EC6266_CMD_9B?OEM_6266
            CODE    3DA9H     0001H     UNIT         ?PR?EC6266_CMD_9C?OEM_6266
            CODE    3DAAH     0001H     UNIT         ?PR?EC6266_CMD_9D?OEM_6266
            CODE    3DABH     0001H     UNIT         ?PR?EC6266_CMD_9E?OEM_6266
            CODE    3DACH     0001H     UNIT         ?PR?EC6266_CMD_9F?OEM_6266
            CODE    3DADH     0001H     UNIT         ?PR?EC6266_CMD_A0?OEM_6266
            CODE    3DAEH     0001H     UNIT         ?PR?EC6266_CMD_A1?OEM_6266
            CODE    3DAFH     0001H     UNIT         ?PR?EC6266_CMD_A2?OEM_6266
            CODE    3DB0H     0001H     UNIT         ?PR?EC6266_CMD_A3?OEM_6266
            CODE    3DB1H     0001H     UNIT         ?PR?EC6266_CMD_A4?OEM_6266
            CODE    3DB2H     0001H     UNIT         ?PR?EC6266_CMD_A5?OEM_6266
BL51 BANKED LINKER/LOCATER V5.12                                                      09/25/2020  15:06:33  PAGE 19


            CODE    3DB3H     0001H     UNIT         ?PR?EC6266_CMD_A6?OEM_6266
            CODE    3DB4H     0001H     UNIT         ?PR?EC6266_CMD_A7?OEM_6266
            CODE    3DB5H     0001H     UNIT         ?PR?EC6266_CMD_A8?OEM_6266
            CODE    3DB6H     0001H     UNIT         ?PR?EC6266_CMD_A9?OEM_6266
            CODE    3DB7H     0001H     UNIT         ?PR?EC6266_CMD_AA?OEM_6266
            CODE    3DB8H     0001H     UNIT         ?PR?EC6266_CMD_AB?OEM_6266
            CODE    3DB9H     0001H     UNIT         ?PR?EC6266_CMD_AC?OEM_6266
            CODE    3DBAH     0001H     UNIT         ?PR?EC6266_CMD_AD?OEM_6266
            CODE    3DBBH     0001H     UNIT         ?PR?EC6266_CMD_AE?OEM_6266
            CODE    3DBCH     0001H     UNIT         ?PR?EC6266_CMD_AF?OEM_6266
            CODE    3DBDH     0001H     UNIT         ?PR?EC6266_CMD_B0?OEM_6266
            CODE    3DBEH     0001H     UNIT         ?PR?EC6266_CMD_B1?OEM_6266
            CODE    3DBFH     0001H     UNIT         ?PR?EC6266_CMD_B2?OEM_6266
            CODE    3DC0H     0001H     UNIT         ?PR?EC6266_CMD_B3?OEM_6266
            CODE    3DC1H     0001H     UNIT         ?PR?EC6266_CMD_B4?OEM_6266
            CODE    3DC2H     0001H     UNIT         ?PR?EC6266_CMD_B5?OEM_6266
            CODE    3DC3H     0001H     UNIT         ?PR?EC6266_CMD_B6?OEM_6266
            CODE    3DC4H     0001H     UNIT         ?PR?EC6266_CMD_B7?OEM_6266
            CODE    3DC5H     0001H     UNIT         ?PR?EC6266_CMD_B8?OEM_6266
            CODE    3DC6H     0001H     UNIT         ?PR?EC6266_CMD_B9?OEM_6266
            CODE    3DC7H     0001H     UNIT         ?PR?EC6266_CMD_BA?OEM_6266
            CODE    3DC8H     0001H     UNIT         ?PR?EC6266_CMD_BB?OEM_6266
            CODE    3DC9H     0001H     UNIT         ?PR?EC6266_CMD_BC?OEM_6266
            CODE    3DCAH     0001H     UNIT         ?PR?EC6266_CMD_BD?OEM_6266
            CODE    3DCBH     0001H     UNIT         ?PR?EC6266_CMD_BE?OEM_6266
            CODE    3DCCH     0001H     UNIT         ?PR?EC6266_CMD_BF?OEM_6266
            CODE    3DCDH     0001H     UNIT         ?PR?EC6266_CMD_C0?OEM_6266
            CODE    3DCEH     0001H     UNIT         ?PR?EC6266_CMD_C1?OEM_6266
            CODE    3DCFH     0001H     UNIT         ?PR?EC6266_CMD_C2?OEM_6266
            CODE    3DD0H     0001H     UNIT         ?PR?EC6266_CMD_C3?OEM_6266
            CODE    3DD1H     0001H     UNIT         ?PR?EC6266_CMD_C4?OEM_6266
            CODE    3DD2H     0001H     UNIT         ?PR?EC6266_CMD_C5?OEM_6266
            CODE    3DD3H     0001H     UNIT         ?PR?EC6266_CMD_C6?OEM_6266
            CODE    3DD4H     0001H     UNIT         ?PR?EC6266_CMD_C7?OEM_6266
            CODE    3DD5H     0001H     UNIT         ?PR?EC6266_CMD_C8?OEM_6266
            CODE    3DD6H     0001H     UNIT         ?PR?EC6266_CMD_C9?OEM_6266
            CODE    3DD7H     0001H     UNIT         ?PR?EC6266_CMD_CA?OEM_6266
            CODE    3DD8H     0001H     UNIT         ?PR?EC6266_CMD_CB?OEM_6266
            CODE    3DD9H     0001H     UNIT         ?PR?EC6266_CMD_CC?OEM_6266
            CODE    3DDAH     0001H     UNIT         ?PR?EC6266_CMD_CD?OEM_6266
            CODE    3DDBH     0001H     UNIT         ?PR?EC6266_CMD_CE?OEM_6266
            CODE    3DDCH     0001H     UNIT         ?PR?EC6266_CMD_CF?OEM_6266
            CODE    3DDDH     0001H     UNIT         ?PR?EC6266_CMD_D0?OEM_6266
            CODE    3DDEH     0001H     UNIT         ?PR?EC6266_CMD_D1?OEM_6266
            CODE    3DDFH     0001H     UNIT         ?PR?EC6266_CMD_D2?OEM_6266
            CODE    3DE0H     0001H     UNIT         ?PR?EC6266_CMD_D3?OEM_6266
            CODE    3DE1H     0001H     UNIT         ?PR?EC6266_CMD_D4?OEM_6266
            CODE    3DE2H     0001H     UNIT         ?PR?EC6266_CMD_D5?OEM_6266
            CODE    3DE3H     0001H     UNIT         ?PR?EC6266_CMD_D6?OEM_6266
            CODE    3DE4H     0001H     UNIT         ?PR?EC6266_CMD_D7?OEM_6266
            CODE    3DE5H     0001H     UNIT         ?PR?EC6266_CMD_D8?OEM_6266
            CODE    3DE6H     0001H     UNIT         ?PR?EC6266_CMD_D9?OEM_6266
            CODE    3DE7H     0001H     UNIT         ?PR?EC6266_CMD_DA?OEM_6266
            CODE    3DE8H     0001H     UNIT         ?PR?EC6266_CMD_DB?OEM_6266
            CODE    3DE9H     0003H     UNIT         ?PR?EC6266_CMD_DC?OEM_6266
            CODE    3DECH     0001H     UNIT         ?PR?EC6266_CMD_DD?OEM_6266
            CODE    3DEDH     0001H     UNIT         ?PR?EC6266_CMD_DE?OEM_6266
BL51 BANKED LINKER/LOCATER V5.12                                                      09/25/2020  15:06:33  PAGE 20


            CODE    3DEEH     0001H     UNIT         ?PR?EC6266_CMD_DF?OEM_6266
            CODE    3DEFH     0001H     UNIT         ?PR?EC6266_CMD_E0?OEM_6266
            CODE    3DF0H     0001H     UNIT         ?PR?EC6266_CMD_E1?OEM_6266
            CODE    3DF1H     0001H     UNIT         ?PR?EC6266_CMD_E2?OEM_6266
            CODE    3DF2H     0001H     UNIT         ?PR?EC6266_CMD_E3?OEM_6266
            CODE    3DF3H     0001H     UNIT         ?PR?EC6266_CMD_E4?OEM_6266
            CODE    3DF4H     0001H     UNIT         ?PR?EC6266_CMD_E5?OEM_6266
            CODE    3DF5H     0001H     UNIT         ?PR?EC6266_CMD_E6?OEM_6266
            CODE    3DF6H     0001H     UNIT         ?PR?EC6266_CMD_E7?OEM_6266
            CODE    3DF7H     0001H     UNIT         ?PR?EC6266_CMD_E8?OEM_6266
            CODE    3DF8H     0001H     UNIT         ?PR?EC6266_CMD_E9?OEM_6266
            CODE    3DF9H     0001H     UNIT         ?PR?EC6266_CMD_EA?OEM_6266
            CODE    3DFAH     0001H     UNIT         ?PR?EC6266_CMD_EB?OEM_6266
            CODE    3DFBH     0001H     UNIT         ?PR?EC6266_CMD_EC?OEM_6266
            CODE    3DFCH     0001H     UNIT         ?PR?EC6266_CMD_ED?OEM_6266
            CODE    3DFDH     0001H     UNIT         ?PR?EC6266_CMD_EE?OEM_6266
            CODE    3DFEH     0001H     UNIT         ?PR?EC6266_CMD_EF?OEM_6266
            CODE    3DFFH     0001H     UNIT         ?PR?EC6266_CMD_F0?OEM_6266
            CODE    3E00H     0001H     UNIT         ?PR?EC6266_CMD_F1?OEM_6266
            CODE    3E01H     0001H     UNIT         ?PR?EC6266_CMD_F2?OEM_6266
            CODE    3E02H     0001H     UNIT         ?PR?EC6266_CMD_F3?OEM_6266
            CODE    3E03H     0001H     UNIT         ?PR?EC6266_CMD_F4?OEM_6266
            CODE    3E04H     0001H     UNIT         ?PR?EC6266_CMD_F5?OEM_6266
            CODE    3E05H     0001H     UNIT         ?PR?EC6266_CMD_F6?OEM_6266
            CODE    3E06H     0001H     UNIT         ?PR?EC6266_CMD_F7?OEM_6266
            CODE    3E07H     0001H     UNIT         ?PR?EC6266_CMD_F8?OEM_6266
            CODE    3E08H     0001H     UNIT         ?PR?EC6266_CMD_F9?OEM_6266
            CODE    3E09H     0001H     UNIT         ?PR?EC6266_CMD_FA?OEM_6266
            CODE    3E0AH     0001H     UNIT         ?PR?EC6266_CMD_FB?OEM_6266
            CODE    3E0BH     0001H     UNIT         ?PR?EC6266_CMD_FC?OEM_6266
            CODE    3E0CH     0001H     UNIT         ?PR?EC6266_CMD_FD?OEM_6266
            CODE    3E0DH     0001H     UNIT         ?PR?EC6266_CMD_FE?OEM_6266
            CODE    3E0EH     0001H     UNIT         ?PR?EC6266_CMD_FF?OEM_6266
            CODE    3E0FH     0001H     UNIT         ?PR?EC6266_CMD_NULL?OEM_6266
            CODE    3E10H     0001H     UNIT         ?PR?EC62_DATA_STEP0?OEM_6266
            CODE    3E11H     0001H     UNIT         ?PR?EC62_DATA_STEP4?OEM_6266
            CODE    3E12H     0001H     UNIT         ?PR?EC62_DATA_STEP5?OEM_6266
            CODE    3E13H     0001H     UNIT         ?PR?EC62_DATA_STEP6?OEM_6266
            CODE    3E14H     0001H     UNIT         ?PR?EC62_DATA_STEP7?OEM_6266
            CODE    3E15H     0036H     UNIT         ?PR?OEM_GETPORT62DATA?OEM_6266
            CODE    3E4BH     0006H     UNIT         ?PR?EC_CMD_0X?OEM_6266
            CODE    3E51H     0006H     UNIT         ?PR?EC_CMD_1X?OEM_6266
            CODE    3E57H     0006H     UNIT         ?PR?EC_CMD_2X?OEM_6266
            CODE    3E5DH     0006H     UNIT         ?PR?EC_CMD_3X?OEM_6266
            CODE    3E63H     0006H     UNIT         ?PR?EC_CMD_4X?OEM_6266
            CODE    3E69H     0006H     UNIT         ?PR?EC_CMD_5X?OEM_6266
            CODE    3E6FH     0006H     UNIT         ?PR?EC_CMD_6X?OEM_6266
            CODE    3E75H     0006H     UNIT         ?PR?EC_CMD_7X?OEM_6266
            CODE    3E7BH     0010H     UNIT         ?PR?EC_CMD_9X?OEM_6266
            CODE    3E8BH     0010H     UNIT         ?PR?EC_CMD_AX?OEM_6266
            CODE    3E9BH     0010H     UNIT         ?PR?EC_CMD_BX?OEM_6266
            CODE    3EABH     0010H     UNIT         ?PR?EC_CMD_CX?OEM_6266
            CODE    3EBBH     0010H     UNIT         ?PR?EC_CMD_DX?OEM_6266
            CODE    3ECBH     0010H     UNIT         ?PR?EC_CMD_EX?OEM_6266
            CODE    3EDBH     0010H     UNIT         ?PR?EC_CMD_FX?OEM_6266
            CODE    3EEBH     0100H     UNIT         ?CO?OEM_6266
            CODE    3FEBH     002FH     UNIT         ?PR?OEM_6266
BL51 BANKED LINKER/LOCATER V5.12                                                      09/25/2020  15:06:33  PAGE 21


            CODE    401AH     0006H     UNIT         ?PR?_PMC2_READ_MAPECSPACE?OEM_686C
            CODE    4020H     0006H     UNIT         ?PR?_PMC2_WRITE_MAPECSPACE?OEM_686C
            CODE    4026H     0001H     UNIT         ?PR?EC686C_CMD_84?OEM_686C
            CODE    4027H     0001H     UNIT         ?PR?EC686C_CMD_85?OEM_686C
            CODE    4028H     0001H     UNIT         ?PR?EC686C_CMD_86?OEM_686C
            CODE    4029H     0001H     UNIT         ?PR?EC686C_CMD_87?OEM_686C
            CODE    402AH     0001H     UNIT         ?PR?EC686C_CMD_88?OEM_686C
            CODE    402BH     0001H     UNIT         ?PR?EC686C_CMD_89?OEM_686C
            CODE    402CH     0001H     UNIT         ?PR?EC686C_CMD_8A?OEM_686C
            CODE    402DH     0001H     UNIT         ?PR?EC686C_CMD_8B?OEM_686C
            CODE    402EH     0001H     UNIT         ?PR?EC686C_CMD_8C?OEM_686C
            CODE    402FH     0001H     UNIT         ?PR?EC686C_CMD_8D?OEM_686C
            CODE    4030H     0001H     UNIT         ?PR?EC686C_CMD_8E?OEM_686C
            CODE    4031H     0001H     UNIT         ?PR?EC686C_CMD_8F?OEM_686C
            CODE    4032H     0001H     UNIT         ?PR?EC686C_CMD_90?OEM_686C
            CODE    4033H     0001H     UNIT         ?PR?EC686C_CMD_91?OEM_686C
            CODE    4034H     0001H     UNIT         ?PR?EC686C_CMD_92?OEM_686C
            CODE    4035H     0001H     UNIT         ?PR?EC686C_CMD_93?OEM_686C
            CODE    4036H     0001H     UNIT         ?PR?EC686C_CMD_94?OEM_686C
            CODE    4037H     0001H     UNIT         ?PR?EC686C_CMD_95?OEM_686C
            CODE    4038H     0001H     UNIT         ?PR?EC686C_CMD_96?OEM_686C
            CODE    4039H     0001H     UNIT         ?PR?EC686C_CMD_97?OEM_686C
            CODE    403AH     0001H     UNIT         ?PR?EC686C_CMD_98?OEM_686C
            CODE    403BH     0001H     UNIT         ?PR?EC686C_CMD_99?OEM_686C
            CODE    403CH     0001H     UNIT         ?PR?EC686C_CMD_9A?OEM_686C
            CODE    403DH     0001H     UNIT         ?PR?EC686C_CMD_9B?OEM_686C
            CODE    403EH     0001H     UNIT         ?PR?EC686C_CMD_9C?OEM_686C
            CODE    403FH     0001H     UNIT         ?PR?EC686C_CMD_9D?OEM_686C
            CODE    4040H     0001H     UNIT         ?PR?EC686C_CMD_9E?OEM_686C
            CODE    4041H     0001H     UNIT         ?PR?EC686C_CMD_9F?OEM_686C
            CODE    4042H     0001H     UNIT         ?PR?EC686C_CMD_A0?OEM_686C
            CODE    4043H     0001H     UNIT         ?PR?EC686C_CMD_A1?OEM_686C
            CODE    4044H     0001H     UNIT         ?PR?EC686C_CMD_A2?OEM_686C
            CODE    4045H     0001H     UNIT         ?PR?EC686C_CMD_A3?OEM_686C
            CODE    4046H     0001H     UNIT         ?PR?EC686C_CMD_A4?OEM_686C
            CODE    4047H     0001H     UNIT         ?PR?EC686C_CMD_A5?OEM_686C
            CODE    4048H     0001H     UNIT         ?PR?EC686C_CMD_A6?OEM_686C
            CODE    4049H     0001H     UNIT         ?PR?EC686C_CMD_A7?OEM_686C
            CODE    404AH     0001H     UNIT         ?PR?EC686C_CMD_A8?OEM_686C
            CODE    404BH     0001H     UNIT         ?PR?EC686C_CMD_A9?OEM_686C
            CODE    404CH     0001H     UNIT         ?PR?EC686C_CMD_AA?OEM_686C
            CODE    404DH     0001H     UNIT         ?PR?EC686C_CMD_AB?OEM_686C
            CODE    404EH     0001H     UNIT         ?PR?EC686C_CMD_AC?OEM_686C
            CODE    404FH     0001H     UNIT         ?PR?EC686C_CMD_AD?OEM_686C
            CODE    4050H     0001H     UNIT         ?PR?EC686C_CMD_AE?OEM_686C
            CODE    4051H     0001H     UNIT         ?PR?EC686C_CMD_AF?OEM_686C
            CODE    4052H     0001H     UNIT         ?PR?EC686C_CMD_B0?OEM_686C
            CODE    4053H     0001H     UNIT         ?PR?EC686C_CMD_B1?OEM_686C
            CODE    4054H     0001H     UNIT         ?PR?EC686C_CMD_B2?OEM_686C
            CODE    4055H     0001H     UNIT         ?PR?EC686C_CMD_B3?OEM_686C
            CODE    4056H     0001H     UNIT         ?PR?EC686C_CMD_B4?OEM_686C
            CODE    4057H     0001H     UNIT         ?PR?EC686C_CMD_B5?OEM_686C
            CODE    4058H     0001H     UNIT         ?PR?EC686C_CMD_B6?OEM_686C
            CODE    4059H     0001H     UNIT         ?PR?EC686C_CMD_B7?OEM_686C
            CODE    405AH     0001H     UNIT         ?PR?EC686C_CMD_B8?OEM_686C
            CODE    405BH     0001H     UNIT         ?PR?EC686C_CMD_B9?OEM_686C
            CODE    405CH     0001H     UNIT         ?PR?EC686C_CMD_BA?OEM_686C
BL51 BANKED LINKER/LOCATER V5.12                                                      09/25/2020  15:06:33  PAGE 22


            CODE    405DH     0001H     UNIT         ?PR?EC686C_CMD_BB?OEM_686C
            CODE    405EH     0001H     UNIT         ?PR?EC686C_CMD_BC?OEM_686C
            CODE    405FH     0001H     UNIT         ?PR?EC686C_CMD_BD?OEM_686C
            CODE    4060H     0001H     UNIT         ?PR?EC686C_CMD_BE?OEM_686C
            CODE    4061H     0001H     UNIT         ?PR?EC686C_CMD_BF?OEM_686C
            CODE    4062H     0001H     UNIT         ?PR?EC686C_CMD_C0?OEM_686C
            CODE    4063H     0001H     UNIT         ?PR?EC686C_CMD_C1?OEM_686C
            CODE    4064H     0001H     UNIT         ?PR?EC686C_CMD_C2?OEM_686C
            CODE    4065H     0001H     UNIT         ?PR?EC686C_CMD_C3?OEM_686C
            CODE    4066H     0001H     UNIT         ?PR?EC686C_CMD_C4?OEM_686C
            CODE    4067H     0001H     UNIT         ?PR?EC686C_CMD_C5?OEM_686C
            CODE    4068H     0001H     UNIT         ?PR?EC686C_CMD_C6?OEM_686C
            CODE    4069H     0001H     UNIT         ?PR?EC686C_CMD_C7?OEM_686C
            CODE    406AH     0001H     UNIT         ?PR?EC686C_CMD_C8?OEM_686C
            CODE    406BH     0001H     UNIT         ?PR?EC686C_CMD_C9?OEM_686C
            CODE    406CH     0001H     UNIT         ?PR?EC686C_CMD_CA?OEM_686C
            CODE    406DH     0001H     UNIT         ?PR?EC686C_CMD_CB?OEM_686C
            CODE    406EH     0001H     UNIT         ?PR?EC686C_CMD_CC?OEM_686C
            CODE    406FH     0001H     UNIT         ?PR?EC686C_CMD_CD?OEM_686C
            CODE    4070H     0001H     UNIT         ?PR?EC686C_CMD_CE?OEM_686C
            CODE    4071H     0001H     UNIT         ?PR?EC686C_CMD_CF?OEM_686C
            CODE    4072H     0001H     UNIT         ?PR?EC686C_CMD_D0?OEM_686C
            CODE    4073H     0001H     UNIT         ?PR?EC686C_CMD_D1?OEM_686C
            CODE    4074H     0001H     UNIT         ?PR?EC686C_CMD_D2?OEM_686C
            CODE    4075H     0001H     UNIT         ?PR?EC686C_CMD_D3?OEM_686C
            CODE    4076H     0001H     UNIT         ?PR?EC686C_CMD_D4?OEM_686C
            CODE    4077H     0001H     UNIT         ?PR?EC686C_CMD_D5?OEM_686C
            CODE    4078H     0001H     UNIT         ?PR?EC686C_CMD_D6?OEM_686C
            CODE    4079H     0001H     UNIT         ?PR?EC686C_CMD_D7?OEM_686C
            CODE    407AH     0001H     UNIT         ?PR?EC686C_CMD_D8?OEM_686C
            CODE    407BH     0001H     UNIT         ?PR?EC686C_CMD_D9?OEM_686C
            CODE    407CH     0001H     UNIT         ?PR?EC686C_CMD_DA?OEM_686C
            CODE    407DH     0001H     UNIT         ?PR?EC686C_CMD_DB?OEM_686C
            CODE    407EH     0001H     UNIT         ?PR?EC686C_CMD_DC?OEM_686C
            CODE    407FH     0001H     UNIT         ?PR?EC686C_CMD_DD?OEM_686C
            CODE    4080H     0001H     UNIT         ?PR?EC686C_CMD_DE?OEM_686C
            CODE    4081H     0001H     UNIT         ?PR?EC686C_CMD_DF?OEM_686C
            CODE    4082H     0001H     UNIT         ?PR?EC686C_CMD_E0?OEM_686C
            CODE    4083H     0001H     UNIT         ?PR?EC686C_CMD_E1?OEM_686C
            CODE    4084H     0001H     UNIT         ?PR?EC686C_CMD_E2?OEM_686C
            CODE    4085H     0001H     UNIT         ?PR?EC686C_CMD_E3?OEM_686C
            CODE    4086H     0001H     UNIT         ?PR?EC686C_CMD_E4?OEM_686C
            CODE    4087H     0001H     UNIT         ?PR?EC686C_CMD_E5?OEM_686C
            CODE    4088H     0001H     UNIT         ?PR?EC686C_CMD_E6?OEM_686C
            CODE    4089H     0001H     UNIT         ?PR?EC686C_CMD_E7?OEM_686C
            CODE    408AH     0001H     UNIT         ?PR?EC686C_CMD_E8?OEM_686C
            CODE    408BH     0001H     UNIT         ?PR?EC686C_CMD_E9?OEM_686C
            CODE    408CH     0001H     UNIT         ?PR?EC686C_CMD_EA?OEM_686C
            CODE    408DH     0001H     UNIT         ?PR?EC686C_CMD_EB?OEM_686C
            CODE    408EH     0001H     UNIT         ?PR?EC686C_CMD_EC?OEM_686C
            CODE    408FH     0001H     UNIT         ?PR?EC686C_CMD_ED?OEM_686C
            CODE    4090H     0001H     UNIT         ?PR?EC686C_CMD_EE?OEM_686C
            CODE    4091H     0001H     UNIT         ?PR?EC686C_CMD_EF?OEM_686C
            CODE    4092H     0001H     UNIT         ?PR?EC686C_CMD_F0?OEM_686C
            CODE    4093H     0001H     UNIT         ?PR?EC686C_CMD_F1?OEM_686C
            CODE    4094H     0001H     UNIT         ?PR?EC686C_CMD_F2?OEM_686C
            CODE    4095H     0001H     UNIT         ?PR?EC686C_CMD_F3?OEM_686C
BL51 BANKED LINKER/LOCATER V5.12                                                      09/25/2020  15:06:33  PAGE 23


            CODE    4096H     0001H     UNIT         ?PR?EC686C_CMD_F4?OEM_686C
            CODE    4097H     0001H     UNIT         ?PR?EC686C_CMD_F5?OEM_686C
            CODE    4098H     0001H     UNIT         ?PR?EC686C_CMD_F6?OEM_686C
            CODE    4099H     0001H     UNIT         ?PR?EC686C_CMD_F7?OEM_686C
            CODE    409AH     0001H     UNIT         ?PR?EC686C_CMD_F8?OEM_686C
            CODE    409BH     0001H     UNIT         ?PR?EC686C_CMD_F9?OEM_686C
            CODE    409CH     0001H     UNIT         ?PR?EC686C_CMD_FA?OEM_686C
            CODE    409DH     0001H     UNIT         ?PR?EC686C_CMD_FB?OEM_686C
            CODE    409EH     0001H     UNIT         ?PR?EC686C_CMD_FC?OEM_686C
            CODE    409FH     0001H     UNIT         ?PR?EC686C_CMD_FD?OEM_686C
            CODE    40A0H     0001H     UNIT         ?PR?EC686C_CMD_FE?OEM_686C
            CODE    40A1H     0001H     UNIT         ?PR?EC686C_CMD_FF?OEM_686C
            CODE    40A2H     0001H     UNIT         ?PR?EC686C_CMD_NULL?OEM_686C
            CODE    40A3H     0001H     UNIT         ?PR?EC68_DATA_STEP0?OEM_686C
            CODE    40A4H     0001H     UNIT         ?PR?EC68_DATA_STEP4?OEM_686C
            CODE    40A5H     0001H     UNIT         ?PR?EC68_DATA_STEP5?OEM_686C
            CODE    40A6H     0001H     UNIT         ?PR?EC68_DATA_STEP6?OEM_686C
            CODE    40A7H     0001H     UNIT         ?PR?EC68_DATA_STEP7?OEM_686C
            CODE    40A8H     0036H     UNIT         ?PR?OEM_GETPORT68DATA?OEM_686C
            CODE    40DEH     0006H     UNIT         ?PR?EC_PMC2_CMD_0X?OEM_686C
            CODE    40E4H     0006H     UNIT         ?PR?EC_PMC2_CMD_1X?OEM_686C
            CODE    40EAH     0006H     UNIT         ?PR?EC_PMC2_CMD_2X?OEM_686C
            CODE    40F0H     0006H     UNIT         ?PR?EC_PMC2_CMD_3X?OEM_686C
            CODE    40F6H     0006H     UNIT         ?PR?EC_PMC2_CMD_4X?OEM_686C
            CODE    40FCH     0006H     UNIT         ?PR?EC_PMC2_CMD_5X?OEM_686C
            CODE    4102H     0006H     UNIT         ?PR?EC_PMC2_CMD_6X?OEM_686C
            CODE    4108H     0006H     UNIT         ?PR?EC_PMC2_CMD_7X?OEM_686C
            CODE    410EH     0010H     UNIT         ?PR?EC_PMC2_CMD_9X?OEM_686C
            CODE    411EH     0010H     UNIT         ?PR?EC_PMC2_CMD_AX?OEM_686C
            CODE    412EH     0010H     UNIT         ?PR?EC_PMC2_CMD_BX?OEM_686C
            CODE    413EH     0010H     UNIT         ?PR?EC_PMC2_CMD_CX?OEM_686C
            CODE    414EH     0010H     UNIT         ?PR?EC_PMC2_CMD_DX?OEM_686C
            CODE    415EH     0010H     UNIT         ?PR?EC_PMC2_CMD_EX?OEM_686C
            CODE    416EH     0010H     UNIT         ?PR?EC_PMC2_CMD_FX?OEM_686C
            CODE    417EH     0100H     UNIT         ?CO?OEM_686C
            CODE    427EH     002FH     UNIT         ?PR?OEM_686C
            CODE    42ADH     0085H     UNIT         ?PR?OEM_SYSPOWERCONTRL?OEM_POWER
            CODE    4332H     002DH     UNIT         ?PR?OEM_COLDBOOTTESTER?OEM_POWER
            CODE    435FH     0031H     UNIT         ?PR?OEM_CHECKPOWSWITCH?OEM_POWER
            CODE    4390H     0007H     UNIT         ?PR?OEM_TRIGGERPOWERON?OEM_POWER
            CODE    4397H     0010H     UNIT         ?PR?OEM_TRIGGERPOWEROFF?OEM_POWER
            CODE    43A7H     0019H     UNIT         ?PR?OEM_POWSWTOPWRBTN?OEM_POWER
            CODE    43C0H     001DH     UNIT         ?PR?OEM_POWSWITCHINTR?OEM_POWER
            CODE    43DDH     003FH     UNIT         ?PR?OEM_POWSWOVER5SEC?OEM_POWER
            CODE    441CH     0014H     UNIT         ?PR?OEM_CHKS5SHUTDOWN?OEM_POWER
            CODE    4430H     0017H     UNIT         ?PR?OEM_CHKS3SUSPEND?OEM_POWER
            CODE    4447H     0017H     UNIT         ?PR?OEM_CHKS3WAKEUP?OEM_POWER
            CODE    445EH     0015H     UNIT         ?PR?OEM_SYSONINIT?OEM_POWER
            CODE    4473H     0018H     UNIT         ?PR?OEM_SYSOFFINIT?OEM_POWER
            CODE    448BH     000FH     UNIT         ?PR?OEM_SYSSUSPENDINIT?OEM_POWER
            CODE    449AH     000CH     UNIT         ?PR?OEM_SYSRESUMEINIT?OEM_POWER
            CODE    44A6H     000EH     UNIT         ?PR?INITSHAREMEMORY?OEM_POWER
            CODE    44B4H     0078H     UNIT         ?PR?OEM_SYSONSEQUENCE?OEM_POWER
            CODE    452CH     005CH     UNIT         ?PR?OEM_SYSRESUMESEQUENCE?OEM_POWER
            CODE    4588H     0016H     UNIT         ?PR?OEM_FORCESYSTEMOFF?OEM_POWER
            CODE    459EH     0068H     UNIT         ?PR?OEM_SYSOFFSEQUENCE?OEM_POWER
            CODE    4606H     003AH     UNIT         ?PR?OEM_SYSSUSPENDSEQUENCE?OEM_POWER
BL51 BANKED LINKER/LOCATER V5.12                                                      09/25/2020  15:06:33  PAGE 24


            CODE    4640H     0033H     UNIT         ?PR?OEM_POWSWOVER5SEC_FORCESHUTDOWN?OEM_POWER
            CODE    4673H     0087H     UNIT         ?PR?CHECK_POWER_STATE?OEM_POWER
            CODE    46FAH     004CH     UNIT         ?PR?PROCESSLED?OEM_POWER
            CODE    4746H     000CH     UNIT         ?CO?OEM_POWER
            CODE    4752H     0061H     UNIT         ?PR?OEM_POWER
            CODE    47B3H     006FH     UNIT         ?PR?HOOK_CIRWAKEUP?OEM_CIR
            CODE    4822H     0078H     UNIT         ?PR?INIT_CIR?OEM_CIR
            CODE    489AH     000AH     UNIT         ?PR?RESET_CIR?OEM_CIR
            CODE    48A4H     0007H     UNIT         ?PR?EN_EC_CIR?OEM_CIR
            CODE    48ABH     000FH     UNIT         ?PR?BCLEARCIRFIFO?OEM_CIR
            CODE    48BAH     0012H     UNIT         ?PR?CLEARCIR?OEM_CIR
            CODE    48CCH     0003H     UNIT         ?PR?SERVICE_CIR?OEM_CIR
            CODE    48CFH     000BH     UNIT         ?PR?CLEAR_CIR_BUFFER?OEM_CIR
            CODE    48DAH     0004H     UNIT         ?CO?OEM_CIR
            CODE    48DEH     000EH     UNIT         ?PR?OEM_CIR
            CODE    48ECH     0006H     UNIT         ?PR?_HOOK_GETSMBUSREADBLOCKBYTECOUNT?OEM_SMBUS
            CODE    48F2H     0006H     UNIT         ?PR?HOOK_SMBDEBUG?OEM_SMBUS
            CODE    48F8H     0006H     UNIT         ?PR?ERROR_SMBDEBUG?OEM_SMBUS
            CODE    48FEH     0001H     UNIT         ?PR?HOOK_SMB_TEST_DEBUG?OEM_SMBUS
            CODE    48FFH     0001H     UNIT         ?PR?HOOK_SMB_TEST_ERROR_DEBUG?OEM_SMBUS
            CODE    4900H     001DH     UNIT         ?PR?CHECKSMBUSNEEDSERVICE?OEM_SMBUS
            CODE    491DH     000AH     UNIT         ?PR?OEM_SMBUS
            CODE    4927H     0044H     UNIT         ?PR?_GETFANRPM?OEM_FAN
            CODE    496BH     0064H     UNIT         ?PR?EC_START?OEM_FAN
            CODE    49CFH     0004H     UNIT         ?PR?EC_STOP?OEM_FAN
            CODE    49D3H     000CH     UNIT         ?PR?OEM_FAN
            CODE    49DFH     0001H     UNIT         ?C_INITSEG
            CODE    49E0H     01BDH     UNIT         ?C?LIB_CODE
            CODE    4B9DH     0044H     UNIT         ?C?LDIV
                    4BE1H     B21FH                  *** GAP ***
            CODE    FE00H     00B7H     UNIT         ?PR?FLASHECCODE?CORE_FLASH
                    FEB7H     0047H                  *** GAP ***
            CODE    FEFEH     0002H     UNIT         ?CO?CORE_FW_VERSION
                    FF00H     00F8H                  *** GAP ***
            CODE    FFF8H     0008H     UNIT         ?CO?OEM_FW_VERSION



OVERLAY MAP OF MODULE:   ITEEC.ABS (CORE_IRQ)


SEGMENT                                             BIT_GROUP          XDATA_GROUP
  +--> CALLED SEGMENT                            START    LENGTH     START    LENGTH
------------------------------------------------------------------------------------
?C_C51STARTUP                                    -----    -----      -----    -----
  +--> ?PR?INIT_CLEARRAM?CORE_INIT
  +--> ?PR?MAIN?CORE_MAIN
  +--> ?C_INITSEG

?PR?MAIN?CORE_MAIN                               -----    -----      -----    -----
  +--> ?PR?DISABLEALLINTERRUPT?CORE_IRQ
  +--> ?PR?RESET_INITIALIZATION?CORE_INIT
  +--> ?PR?ENABLEALLINTERRUPT?CORE_IRQ
  +--> ?PR?CORE_MAIN
  +--> ?PR?INITSMBUS?CORE_INIT
  +--> ?PR?MAIN_SERVICE?CORE_MAIN

BL51 BANKED LINKER/LOCATER V5.12                                                      09/25/2020  15:06:33  PAGE 25


?PR?RESET_INITIALIZATION?CORE_INIT               -----    -----      -----    -----
  +--> ?PR?KERNEL_INITIALIZATION?CORE_INIT
  +--> ?PR?INITIALIZE_GPIO_PIN_STATE?OEM_GPIO
  +--> ?PR?INITADC?CORE_INIT
  +--> ?PR?INIT_BRAM?CORE_INIT
  +--> ?PR?INIT_TIMERS?CORE_INIT

?PR?KERNEL_INITIALIZATION?CORE_INIT              -----    -----      -----    -----
  +--> ?PR?DISABLE_DCACHE?CORE_INIT
  +--> ?PR?_VDELAY1MS?CORE_INIT
  +--> ?PR?CORE_INIT
  +--> ?PR?_READ_SPI?CORE_INIT

?PR?_VDELAY1MS?CORE_INIT                         0027H.3  0000H.1    0790H    0002H

?PR?_READ_SPI?CORE_INIT                          -----    -----      0790H    0002H

?PR?INITIALIZE_GPIO_PIN_STATE?OEM_GPIO           -----    -----      -----    -----
  +--> ?PR?OEM_GPIO

?PR?INITADC?CORE_INIT                            -----    -----      -----    -----
  +--> ?PR?CORE_INIT

?PR?INITSMBUS?CORE_INIT                          -----    -----      -----    -----
  +--> ?PR?CORE_INIT_SMBUS?CORE_SMBUS
  +--> ?PR?CORE_INIT

?PR?MAIN_SERVICE?CORE_MAIN                       -----    -----      -----    -----
  +--> ?PR?CORE_MAIN
  +--> ?CO?CORE_MAIN

?CO?CORE_MAIN                                    -----    -----      -----    -----
  +--> ?PR?SERVICE_000?CORE_MAIN
  +--> ?PR?SERVICE_001?CORE_MAIN
  +--> ?PR?SERVICE_002?CORE_MAIN
  +--> ?PR?SERVICE_003?CORE_MAIN
  +--> ?PR?SERVICE_004?CORE_MAIN
  +--> ?PR?SERVICE_005?CORE_MAIN
  +--> ?PR?SERVICE_006?CORE_MAIN
  +--> ?PR?SERVICE_007?CORE_MAIN
  +--> ?PR?SERVICE_008?CORE_MAIN
  +--> ?PR?SERVICE_009?CORE_MAIN
  +--> ?PR?SERVICE_00A?CORE_MAIN
  +--> ?PR?SERVICE_00B?CORE_MAIN
  +--> ?PR?SERVICE_00C?CORE_MAIN
  +--> ?PR?SERVICE_00D?CORE_MAIN
  +--> ?PR?SERVICE_00E?CORE_MAIN
  +--> ?PR?SERVICE_00F?CORE_MAIN

?PR?SERVICE_000?CORE_MAIN                        -----    -----      -----    -----
  +--> ?PR?SERVICE_PCI2?CORE_ACPI

?PR?SERVICE_PCI2?CORE_ACPI                       -----    -----      -----    -----
  +--> ?PR?VSETTOTALBURSTTIME?CORE_ACPI
  +--> ?PR?SERVICE_PCI2_MAIN?CORE_ACPI

?PR?SERVICE_PCI2_MAIN?CORE_ACPI                  -----    -----      -----    -----
BL51 BANKED LINKER/LOCATER V5.12                                                      09/25/2020  15:06:33  PAGE 26


  +--> ?CO?CORE_ACPI
  +--> ?PR?CORE_ACPI
  +--> ?PR?CHECKBURSTMODE?CORE_ACPI

?CO?CORE_ACPI                                    -----    -----      -----    -----
  +--> ?PR?EC6266_CMD_80?CORE_ACPI
  +--> ?PR?EC6266_CMD_81?CORE_ACPI
  +--> ?PR?EC6266_CMD_82?CORE_ACPI
  +--> ?PR?EC6266_CMD_83?CORE_ACPI
  +--> ?PR?EC6266_CMD_84?CORE_ACPI
  +--> ?PR?EC6266_CMD_85?OEM_6266
  +--> ?PR?EC6266_CMD_86?OEM_6266
  +--> ?PR?EC6266_CMD_87?OEM_6266
  +--> ?PR?EC6266_CMD_88?OEM_6266
  +--> ?PR?EC6266_CMD_89?OEM_6266
  +--> ?PR?EC6266_CMD_8A?OEM_6266
  +--> ?PR?EC6266_CMD_8B?OEM_6266
  +--> ?PR?EC6266_CMD_8C?OEM_6266
  +--> ?PR?EC6266_CMD_8D?OEM_6266
  +--> ?PR?EC6266_CMD_8E?OEM_6266
  +--> ?PR?EC6266_CMD_8F?OEM_6266
  +--> ?PR?EC_CMD_0X?OEM_6266
  +--> ?PR?EC_CMD_1X?OEM_6266
  +--> ?PR?EC_CMD_2X?OEM_6266
  +--> ?PR?EC_CMD_3X?OEM_6266
  +--> ?PR?EC_CMD_4X?OEM_6266
  +--> ?PR?EC_CMD_5X?OEM_6266
  +--> ?PR?EC_CMD_6X?OEM_6266
  +--> ?PR?EC_CMD_7X?OEM_6266
  +--> ?PR?EC_CMD_8X?CORE_ACPI
  +--> ?PR?EC_CMD_9X?OEM_6266
  +--> ?PR?EC_CMD_AX?OEM_6266
  +--> ?PR?EC_CMD_BX?OEM_6266
  +--> ?PR?EC_CMD_CX?OEM_6266
  +--> ?PR?EC_CMD_DX?OEM_6266
  +--> ?PR?EC_CMD_EX?OEM_6266
  +--> ?PR?EC_CMD_FX?OEM_6266
  +--> ?PR?EC62_DATA_STEP0?OEM_6266
  +--> ?PR?EC62_DATA_STEP1?CORE_ACPI
  +--> ?PR?EC62_DATA_STEP2?CORE_ACPI
  +--> ?PR?EC62_DATA_STEP3?CORE_ACPI
  +--> ?PR?EC62_DATA_STEP4?OEM_6266
  +--> ?PR?EC62_DATA_STEP5?OEM_6266
  +--> ?PR?EC62_DATA_STEP6?OEM_6266
  +--> ?PR?EC62_DATA_STEP7?OEM_6266

?PR?EC6266_CMD_80?CORE_ACPI                      -----    -----      -----    -----
  +--> ?PR?SCI_RESPONSE?CORE_ACPI

?PR?EC6266_CMD_81?CORE_ACPI                      -----    -----      -----    -----
  +--> ?PR?SCI_RESPONSE?CORE_ACPI

?PR?EC6266_CMD_82?CORE_ACPI                      -----    -----      -----    -----
  +--> ?PR?SCI_RESPONSE?CORE_ACPI

?PR?EC6266_CMD_83?CORE_ACPI                      -----    -----      -----    -----
  +--> ?PR?SCI_RESPONSE?CORE_ACPI
BL51 BANKED LINKER/LOCATER V5.12                                                      09/25/2020  15:06:33  PAGE 27



?PR?EC6266_CMD_84?CORE_ACPI                      -----    -----      -----    -----
  +--> ?PR?READSCI_QUERYVALUE?CORE_ACPI
  +--> ?PR?SCI_RESPONSE?CORE_ACPI

?PR?READSCI_QUERYVALUE?CORE_ACPI                 -----    -----      -----    -----
  +--> ?PR?CORE_ACPI

?PR?EC_CMD_0X?OEM_6266                           -----    -----      -----    -----
  +--> ?PR?OEM_6266

?PR?OEM_6266                                     -----    -----      -----    -----
  +--> ?CO?OEM_6266

?CO?OEM_6266                                     -----    -----      -----    -----
  +--> ?PR?EC6266_CMD_90?OEM_6266
  +--> ?PR?EC6266_CMD_91?OEM_6266
  +--> ?PR?EC6266_CMD_92?OEM_6266
  +--> ?PR?EC6266_CMD_93?OEM_6266
  +--> ?PR?EC6266_CMD_94?OEM_6266
  +--> ?PR?EC6266_CMD_95?OEM_6266
  +--> ?PR?EC6266_CMD_96?OEM_6266
  +--> ?PR?EC6266_CMD_97?OEM_6266
  +--> ?PR?EC6266_CMD_98?OEM_6266
  +--> ?PR?EC6266_CMD_99?OEM_6266
  +--> ?PR?EC6266_CMD_9A?OEM_6266
  +--> ?PR?EC6266_CMD_9B?OEM_6266
  +--> ?PR?EC6266_CMD_9C?OEM_6266
  +--> ?PR?EC6266_CMD_9D?OEM_6266
  +--> ?PR?EC6266_CMD_9E?OEM_6266
  +--> ?PR?EC6266_CMD_9F?OEM_6266
  +--> ?PR?EC6266_CMD_A0?OEM_6266
  +--> ?PR?EC6266_CMD_A1?OEM_6266
  +--> ?PR?EC6266_CMD_A2?OEM_6266
  +--> ?PR?EC6266_CMD_A3?OEM_6266
  +--> ?PR?EC6266_CMD_A4?OEM_6266
  +--> ?PR?EC6266_CMD_A5?OEM_6266
  +--> ?PR?EC6266_CMD_A6?OEM_6266
  +--> ?PR?EC6266_CMD_A7?OEM_6266
  +--> ?PR?EC6266_CMD_A8?OEM_6266
  +--> ?PR?EC6266_CMD_A9?OEM_6266
  +--> ?PR?EC6266_CMD_AA?OEM_6266
  +--> ?PR?EC6266_CMD_AB?OEM_6266
  +--> ?PR?EC6266_CMD_AC?OEM_6266
  +--> ?PR?EC6266_CMD_AD?OEM_6266
  +--> ?PR?EC6266_CMD_AE?OEM_6266
  +--> ?PR?EC6266_CMD_AF?OEM_6266
  +--> ?PR?EC6266_CMD_B0?OEM_6266
  +--> ?PR?EC6266_CMD_B1?OEM_6266
  +--> ?PR?EC6266_CMD_B2?OEM_6266
  +--> ?PR?EC6266_CMD_B3?OEM_6266
  +--> ?PR?EC6266_CMD_B4?OEM_6266
  +--> ?PR?EC6266_CMD_B5?OEM_6266
  +--> ?PR?EC6266_CMD_B6?OEM_6266
  +--> ?PR?EC6266_CMD_B7?OEM_6266
  +--> ?PR?EC6266_CMD_B8?OEM_6266
  +--> ?PR?EC6266_CMD_B9?OEM_6266
BL51 BANKED LINKER/LOCATER V5.12                                                      09/25/2020  15:06:33  PAGE 28


  +--> ?PR?EC6266_CMD_BA?OEM_6266
  +--> ?PR?EC6266_CMD_BB?OEM_6266
  +--> ?PR?EC6266_CMD_BC?OEM_6266
  +--> ?PR?EC6266_CMD_BD?OEM_6266
  +--> ?PR?EC6266_CMD_BE?OEM_6266
  +--> ?PR?EC6266_CMD_BF?OEM_6266
  +--> ?PR?EC6266_CMD_C0?OEM_6266
  +--> ?PR?EC6266_CMD_C1?OEM_6266
  +--> ?PR?EC6266_CMD_C2?OEM_6266
  +--> ?PR?EC6266_CMD_C3?OEM_6266
  +--> ?PR?EC6266_CMD_C4?OEM_6266
  +--> ?PR?EC6266_CMD_C5?OEM_6266
  +--> ?PR?EC6266_CMD_C6?OEM_6266
  +--> ?PR?EC6266_CMD_C7?OEM_6266
  +--> ?PR?EC6266_CMD_C8?OEM_6266
  +--> ?PR?EC6266_CMD_C9?OEM_6266
  +--> ?PR?EC6266_CMD_CA?OEM_6266
  +--> ?PR?EC6266_CMD_CB?OEM_6266
  +--> ?PR?EC6266_CMD_CC?OEM_6266
  +--> ?PR?EC6266_CMD_CD?OEM_6266
  +--> ?PR?EC6266_CMD_CE?OEM_6266
  +--> ?PR?EC6266_CMD_CF?OEM_6266
  +--> ?PR?EC6266_CMD_D0?OEM_6266
  +--> ?PR?EC6266_CMD_D1?OEM_6266
  +--> ?PR?EC6266_CMD_D2?OEM_6266
  +--> ?PR?EC6266_CMD_D3?OEM_6266
  +--> ?PR?EC6266_CMD_D4?OEM_6266
  +--> ?PR?EC6266_CMD_D5?OEM_6266
  +--> ?PR?EC6266_CMD_D6?OEM_6266
  +--> ?PR?EC6266_CMD_D7?OEM_6266
  +--> ?PR?EC6266_CMD_D8?OEM_6266
  +--> ?PR?EC6266_CMD_D9?OEM_6266
  +--> ?PR?EC6266_CMD_DA?OEM_6266
  +--> ?PR?EC6266_CMD_DB?OEM_6266
  +--> ?PR?EC6266_CMD_DC?OEM_6266
  +--> ?PR?EC6266_CMD_DD?OEM_6266
  +--> ?PR?EC6266_CMD_DE?OEM_6266
  +--> ?PR?EC6266_CMD_DF?OEM_6266
  +--> ?PR?EC6266_CMD_E0?OEM_6266
  +--> ?PR?EC6266_CMD_E1?OEM_6266
  +--> ?PR?EC6266_CMD_E2?OEM_6266
  +--> ?PR?EC6266_CMD_E3?OEM_6266
  +--> ?PR?EC6266_CMD_E4?OEM_6266
  +--> ?PR?EC6266_CMD_E5?OEM_6266
  +--> ?PR?EC6266_CMD_E6?OEM_6266
  +--> ?PR?EC6266_CMD_E7?OEM_6266
  +--> ?PR?EC6266_CMD_E8?OEM_6266
  +--> ?PR?EC6266_CMD_E9?OEM_6266
  +--> ?PR?EC6266_CMD_EA?OEM_6266
  +--> ?PR?EC6266_CMD_EB?OEM_6266
  +--> ?PR?EC6266_CMD_EC?OEM_6266
  +--> ?PR?EC6266_CMD_ED?OEM_6266
  +--> ?PR?EC6266_CMD_EE?OEM_6266
  +--> ?PR?EC6266_CMD_EF?OEM_6266
  +--> ?PR?EC6266_CMD_F0?OEM_6266
  +--> ?PR?EC6266_CMD_F1?OEM_6266
  +--> ?PR?EC6266_CMD_F2?OEM_6266
BL51 BANKED LINKER/LOCATER V5.12                                                      09/25/2020  15:06:33  PAGE 29


  +--> ?PR?EC6266_CMD_F3?OEM_6266
  +--> ?PR?EC6266_CMD_F4?OEM_6266
  +--> ?PR?EC6266_CMD_F5?OEM_6266
  +--> ?PR?EC6266_CMD_F6?OEM_6266
  +--> ?PR?EC6266_CMD_F7?OEM_6266
  +--> ?PR?EC6266_CMD_F8?OEM_6266
  +--> ?PR?EC6266_CMD_F9?OEM_6266
  +--> ?PR?EC6266_CMD_FA?OEM_6266
  +--> ?PR?EC6266_CMD_FB?OEM_6266
  +--> ?PR?EC6266_CMD_FC?OEM_6266
  +--> ?PR?EC6266_CMD_FD?OEM_6266
  +--> ?PR?EC6266_CMD_FE?OEM_6266
  +--> ?PR?EC6266_CMD_FF?OEM_6266
  +--> ?PR?EC6266_CMD_NULL?OEM_6266

?PR?EC6266_CMD_DC?OEM_6266                       -----    -----      -----    -----
  +--> ?PR?ITE_FLASH_UTILITY?CORE_FLASH

?PR?ITE_FLASH_UTILITY?CORE_FLASH                 -----    -----      -----    -----
  +--> ?PR?DISABLEALLINTERRUPT?CORE_IRQ
  +--> ?PR?FLASHECCODE?CORE_FLASH
  +--> ?PR?_LOADSPIFUCNTORAM?CORE_FLASH
  +--> ?PR?FUNCAT_0XFE00?CORE_FLASH

?PR?FUNCAT_0XFE00?CORE_FLASH                     -----    -----      -----    -----
  +--> ?PR?FLASHECCODE?CORE_FLASH

?PR?EC_CMD_1X?OEM_6266                           -----    -----      -----    -----
  +--> ?PR?OEM_6266

?PR?EC_CMD_2X?OEM_6266                           -----    -----      -----    -----
  +--> ?PR?OEM_6266

?PR?EC_CMD_3X?OEM_6266                           -----    -----      -----    -----
  +--> ?PR?OEM_6266

?PR?EC_CMD_4X?OEM_6266                           -----    -----      -----    -----
  +--> ?PR?OEM_6266

?PR?EC_CMD_5X?OEM_6266                           -----    -----      -----    -----
  +--> ?PR?OEM_6266

?PR?EC_CMD_6X?OEM_6266                           -----    -----      -----    -----
  +--> ?PR?OEM_6266

?PR?EC_CMD_7X?OEM_6266                           -----    -----      -----    -----
  +--> ?PR?OEM_6266

?PR?EC_CMD_8X?CORE_ACPI                          -----    -----      -----    -----
  +--> ?PR?CORE_ACPI

?PR?EC_CMD_9X?OEM_6266                           -----    -----      -----    -----
  +--> ?PR?OEM_6266
  +--> ?CO?OEM_6266

?PR?EC_CMD_AX?OEM_6266                           -----    -----      -----    -----
  +--> ?PR?OEM_6266
BL51 BANKED LINKER/LOCATER V5.12                                                      09/25/2020  15:06:33  PAGE 30


  +--> ?CO?OEM_6266

?PR?EC_CMD_BX?OEM_6266                           -----    -----      -----    -----
  +--> ?PR?OEM_6266
  +--> ?CO?OEM_6266

?PR?EC_CMD_CX?OEM_6266                           -----    -----      -----    -----
  +--> ?PR?OEM_6266
  +--> ?CO?OEM_6266

?PR?EC_CMD_DX?OEM_6266                           -----    -----      -----    -----
  +--> ?PR?OEM_6266
  +--> ?CO?OEM_6266

?PR?EC_CMD_EX?OEM_6266                           -----    -----      -----    -----
  +--> ?PR?OEM_6266
  +--> ?CO?OEM_6266

?PR?EC_CMD_FX?OEM_6266                           -----    -----      -----    -----
  +--> ?PR?OEM_6266
  +--> ?CO?OEM_6266

?PR?EC62_DATA_STEP1?CORE_ACPI                    -----    -----      -----    -----
  +--> ?PR?_READ_MAPECSPACE?OEM_6266
  +--> ?PR?SCI_RESPONSE?CORE_ACPI

?PR?_READ_MAPECSPACE?OEM_6266                    -----    -----      -----    -----
  +--> ?PR?OEM_6266

?PR?EC62_DATA_STEP2?CORE_ACPI                    -----    -----      -----    -----
  +--> ?PR?SCI_RESPONSE?CORE_ACPI

?PR?EC62_DATA_STEP3?CORE_ACPI                    -----    -----      -----    -----
  +--> ?PR?SCI_RESPONSE?CORE_ACPI
  +--> ?PR?_WRITE_MAPECSPACE?OEM_6266

?PR?_WRITE_MAPECSPACE?OEM_6266                   -----    -----      -----    -----
  +--> ?PR?OEM_6266

?PR?CHECKBURSTMODE?CORE_ACPI                     -----    -----      0790H    0002H
  +--> ?PR?SCI_RESPONSE?CORE_ACPI

?PR?SERVICE_002?CORE_MAIN                        -----    -----      -----    -----
  +--> ?PR?OEM_HOOK_1MS_EVENT?OEM_MAIN

?PR?OEM_HOOK_1MS_EVENT?OEM_MAIN                  -----    -----      -----    -----
  +--> ?PR?OEM_MAIN

?PR?SERVICE_003?CORE_MAIN                        -----    -----      -----    -----
  +--> ?PR?SERVICE_PCI3?CORE_PMC2

?PR?SERVICE_PCI3?CORE_PMC2                       -----    -----      -----    -----
  +--> ?PR?PMC2_VSETTOTALBURSTTIME?CORE_PMC2
  +--> ?PR?SERVICE_PCI3_MAIN?CORE_PMC2

?PR?SERVICE_PCI3_MAIN?CORE_PMC2                  -----    -----      -----    -----
  +--> ?CO?CORE_PMC2
BL51 BANKED LINKER/LOCATER V5.12                                                      09/25/2020  15:06:33  PAGE 31


  +--> ?PR?CORE_PMC2
  +--> ?PR?PMC2_CHECKBURSTMODE?CORE_PMC2

?CO?CORE_PMC2                                    -----    -----      -----    -----
  +--> ?PR?EC686C_CMD_80?CORE_PMC2
  +--> ?PR?EC686C_CMD_81?CORE_PMC2
  +--> ?PR?EC686C_CMD_82?CORE_PMC2
  +--> ?PR?EC686C_CMD_83?CORE_PMC2
  +--> ?PR?EC686C_CMD_84?OEM_686C
  +--> ?PR?EC686C_CMD_85?OEM_686C
  +--> ?PR?EC686C_CMD_86?OEM_686C
  +--> ?PR?EC686C_CMD_87?OEM_686C
  +--> ?PR?EC686C_CMD_88?OEM_686C
  +--> ?PR?EC686C_CMD_89?OEM_686C
  +--> ?PR?EC686C_CMD_8A?OEM_686C
  +--> ?PR?EC686C_CMD_8B?OEM_686C
  +--> ?PR?EC686C_CMD_8C?OEM_686C
  +--> ?PR?EC686C_CMD_8D?OEM_686C
  +--> ?PR?EC686C_CMD_8E?OEM_686C
  +--> ?PR?EC686C_CMD_8F?OEM_686C
  +--> ?PR?EC_PMC2_CMD_0X?OEM_686C
  +--> ?PR?EC_PMC2_CMD_1X?OEM_686C
  +--> ?PR?EC_PMC2_CMD_2X?OEM_686C
  +--> ?PR?EC_PMC2_CMD_3X?OEM_686C
  +--> ?PR?EC_PMC2_CMD_4X?OEM_686C
  +--> ?PR?EC_PMC2_CMD_5X?OEM_686C
  +--> ?PR?EC_PMC2_CMD_6X?OEM_686C
  +--> ?PR?EC_PMC2_CMD_7X?OEM_686C
  +--> ?PR?EC_PMC2_CMD_8X?CORE_PMC2
  +--> ?PR?EC_PMC2_CMD_9X?OEM_686C
  +--> ?PR?EC_PMC2_CMD_AX?OEM_686C
  +--> ?PR?EC_PMC2_CMD_BX?OEM_686C
  +--> ?PR?EC_PMC2_CMD_CX?OEM_686C
  +--> ?PR?EC_PMC2_CMD_DX?OEM_686C
  +--> ?PR?EC_PMC2_CMD_EX?OEM_686C
  +--> ?PR?EC_PMC2_CMD_FX?OEM_686C
  +--> ?PR?EC68_DATA_STEP0?OEM_686C
  +--> ?PR?EC68_DATA_STEP1?CORE_PMC2
  +--> ?PR?EC68_DATA_STEP2?CORE_PMC2
  +--> ?PR?EC68_DATA_STEP3?CORE_PMC2
  +--> ?PR?EC68_DATA_STEP4?OEM_686C
  +--> ?PR?EC68_DATA_STEP5?OEM_686C
  +--> ?PR?EC68_DATA_STEP6?OEM_686C
  +--> ?PR?EC68_DATA_STEP7?OEM_686C

?PR?EC_PMC2_CMD_0X?OEM_686C                      -----    -----      -----    -----
  +--> ?PR?OEM_686C

?PR?OEM_686C                                     -----    -----      -----    -----
  +--> ?CO?OEM_686C

?CO?OEM_686C                                     -----    -----      -----    -----
  +--> ?PR?EC686C_CMD_90?OEM_686C
  +--> ?PR?EC686C_CMD_91?OEM_686C
  +--> ?PR?EC686C_CMD_92?OEM_686C
  +--> ?PR?EC686C_CMD_93?OEM_686C
  +--> ?PR?EC686C_CMD_94?OEM_686C
BL51 BANKED LINKER/LOCATER V5.12                                                      09/25/2020  15:06:33  PAGE 32


  +--> ?PR?EC686C_CMD_95?OEM_686C
  +--> ?PR?EC686C_CMD_96?OEM_686C
  +--> ?PR?EC686C_CMD_97?OEM_686C
  +--> ?PR?EC686C_CMD_98?OEM_686C
  +--> ?PR?EC686C_CMD_99?OEM_686C
  +--> ?PR?EC686C_CMD_9A?OEM_686C
  +--> ?PR?EC686C_CMD_9B?OEM_686C
  +--> ?PR?EC686C_CMD_9C?OEM_686C
  +--> ?PR?EC686C_CMD_9D?OEM_686C
  +--> ?PR?EC686C_CMD_9E?OEM_686C
  +--> ?PR?EC686C_CMD_9F?OEM_686C
  +--> ?PR?EC686C_CMD_A0?OEM_686C
  +--> ?PR?EC686C_CMD_A1?OEM_686C
  +--> ?PR?EC686C_CMD_A2?OEM_686C
  +--> ?PR?EC686C_CMD_A3?OEM_686C
  +--> ?PR?EC686C_CMD_A4?OEM_686C
  +--> ?PR?EC686C_CMD_A5?OEM_686C
  +--> ?PR?EC686C_CMD_A6?OEM_686C
  +--> ?PR?EC686C_CMD_A7?OEM_686C
  +--> ?PR?EC686C_CMD_A8?OEM_686C
  +--> ?PR?EC686C_CMD_A9?OEM_686C
  +--> ?PR?EC686C_CMD_AA?OEM_686C
  +--> ?PR?EC686C_CMD_AB?OEM_686C
  +--> ?PR?EC686C_CMD_AC?OEM_686C
  +--> ?PR?EC686C_CMD_AD?OEM_686C
  +--> ?PR?EC686C_CMD_AE?OEM_686C
  +--> ?PR?EC686C_CMD_AF?OEM_686C
  +--> ?PR?EC686C_CMD_B0?OEM_686C
  +--> ?PR?EC686C_CMD_B1?OEM_686C
  +--> ?PR?EC686C_CMD_B2?OEM_686C
  +--> ?PR?EC686C_CMD_B3?OEM_686C
  +--> ?PR?EC686C_CMD_B4?OEM_686C
  +--> ?PR?EC686C_CMD_B5?OEM_686C
  +--> ?PR?EC686C_CMD_B6?OEM_686C
  +--> ?PR?EC686C_CMD_B7?OEM_686C
  +--> ?PR?EC686C_CMD_B8?OEM_686C
  +--> ?PR?EC686C_CMD_B9?OEM_686C
  +--> ?PR?EC686C_CMD_BA?OEM_686C
  +--> ?PR?EC686C_CMD_BB?OEM_686C
  +--> ?PR?EC686C_CMD_BC?OEM_686C
  +--> ?PR?EC686C_CMD_BD?OEM_686C
  +--> ?PR?EC686C_CMD_BE?OEM_686C
  +--> ?PR?EC686C_CMD_BF?OEM_686C
  +--> ?PR?EC686C_CMD_C0?OEM_686C
  +--> ?PR?EC686C_CMD_C1?OEM_686C
  +--> ?PR?EC686C_CMD_C2?OEM_686C
  +--> ?PR?EC686C_CMD_C3?OEM_686C
  +--> ?PR?EC686C_CMD_C4?OEM_686C
  +--> ?PR?EC686C_CMD_C5?OEM_686C
  +--> ?PR?EC686C_CMD_C6?OEM_686C
  +--> ?PR?EC686C_CMD_C7?OEM_686C
  +--> ?PR?EC686C_CMD_C8?OEM_686C
  +--> ?PR?EC686C_CMD_C9?OEM_686C
  +--> ?PR?EC686C_CMD_CA?OEM_686C
  +--> ?PR?EC686C_CMD_CB?OEM_686C
  +--> ?PR?EC686C_CMD_CC?OEM_686C
  +--> ?PR?EC686C_CMD_CD?OEM_686C
BL51 BANKED LINKER/LOCATER V5.12                                                      09/25/2020  15:06:33  PAGE 33


  +--> ?PR?EC686C_CMD_CE?OEM_686C
  +--> ?PR?EC686C_CMD_CF?OEM_686C
  +--> ?PR?EC686C_CMD_D0?OEM_686C
  +--> ?PR?EC686C_CMD_D1?OEM_686C
  +--> ?PR?EC686C_CMD_D2?OEM_686C
  +--> ?PR?EC686C_CMD_D3?OEM_686C
  +--> ?PR?EC686C_CMD_D4?OEM_686C
  +--> ?PR?EC686C_CMD_D5?OEM_686C
  +--> ?PR?EC686C_CMD_D6?OEM_686C
  +--> ?PR?EC686C_CMD_D7?OEM_686C
  +--> ?PR?EC686C_CMD_D8?OEM_686C
  +--> ?PR?EC686C_CMD_D9?OEM_686C
  +--> ?PR?EC686C_CMD_DA?OEM_686C
  +--> ?PR?EC686C_CMD_DB?OEM_686C
  +--> ?PR?EC686C_CMD_DC?OEM_686C
  +--> ?PR?EC686C_CMD_DD?OEM_686C
  +--> ?PR?EC686C_CMD_DE?OEM_686C
  +--> ?PR?EC686C_CMD_DF?OEM_686C
  +--> ?PR?EC686C_CMD_E0?OEM_686C
  +--> ?PR?EC686C_CMD_E1?OEM_686C
  +--> ?PR?EC686C_CMD_E2?OEM_686C
  +--> ?PR?EC686C_CMD_E3?OEM_686C
  +--> ?PR?EC686C_CMD_E4?OEM_686C
  +--> ?PR?EC686C_CMD_E5?OEM_686C
  +--> ?PR?EC686C_CMD_E6?OEM_686C
  +--> ?PR?EC686C_CMD_E7?OEM_686C
  +--> ?PR?EC686C_CMD_E8?OEM_686C
  +--> ?PR?EC686C_CMD_E9?OEM_686C
  +--> ?PR?EC686C_CMD_EA?OEM_686C
  +--> ?PR?EC686C_CMD_EB?OEM_686C
  +--> ?PR?EC686C_CMD_EC?OEM_686C
  +--> ?PR?EC686C_CMD_ED?OEM_686C
  +--> ?PR?EC686C_CMD_EE?OEM_686C
  +--> ?PR?EC686C_CMD_EF?OEM_686C
  +--> ?PR?EC686C_CMD_F0?OEM_686C
  +--> ?PR?EC686C_CMD_F1?OEM_686C
  +--> ?PR?EC686C_CMD_F2?OEM_686C
  +--> ?PR?EC686C_CMD_F3?OEM_686C
  +--> ?PR?EC686C_CMD_F4?OEM_686C
  +--> ?PR?EC686C_CMD_F5?OEM_686C
  +--> ?PR?EC686C_CMD_F6?OEM_686C
  +--> ?PR?EC686C_CMD_F7?OEM_686C
  +--> ?PR?EC686C_CMD_F8?OEM_686C
  +--> ?PR?EC686C_CMD_F9?OEM_686C
  +--> ?PR?EC686C_CMD_FA?OEM_686C
  +--> ?PR?EC686C_CMD_FB?OEM_686C
  +--> ?PR?EC686C_CMD_FC?OEM_686C
  +--> ?PR?EC686C_CMD_FD?OEM_686C
  +--> ?PR?EC686C_CMD_FE?OEM_686C
  +--> ?PR?EC686C_CMD_FF?OEM_686C
  +--> ?PR?EC686C_CMD_NULL?OEM_686C

?PR?EC_PMC2_CMD_1X?OEM_686C                      -----    -----      -----    -----
  +--> ?PR?OEM_686C

?PR?EC_PMC2_CMD_2X?OEM_686C                      -----    -----      -----    -----
  +--> ?PR?OEM_686C
BL51 BANKED LINKER/LOCATER V5.12                                                      09/25/2020  15:06:33  PAGE 34



?PR?EC_PMC2_CMD_3X?OEM_686C                      -----    -----      -----    -----
  +--> ?PR?OEM_686C

?PR?EC_PMC2_CMD_4X?OEM_686C                      -----    -----      -----    -----
  +--> ?PR?OEM_686C

?PR?EC_PMC2_CMD_5X?OEM_686C                      -----    -----      -----    -----
  +--> ?PR?OEM_686C

?PR?EC_PMC2_CMD_6X?OEM_686C                      -----    -----      -----    -----
  +--> ?PR?OEM_686C

?PR?EC_PMC2_CMD_7X?OEM_686C                      -----    -----      -----    -----
  +--> ?PR?OEM_686C

?PR?EC_PMC2_CMD_8X?CORE_PMC2                     -----    -----      -----    -----
  +--> ?PR?CORE_PMC2

?PR?EC_PMC2_CMD_9X?OEM_686C                      -----    -----      -----    -----
  +--> ?PR?OEM_686C
  +--> ?CO?OEM_686C

?PR?EC_PMC2_CMD_AX?OEM_686C                      -----    -----      -----    -----
  +--> ?PR?OEM_686C
  +--> ?CO?OEM_686C

?PR?EC_PMC2_CMD_BX?OEM_686C                      -----    -----      -----    -----
  +--> ?PR?OEM_686C
  +--> ?CO?OEM_686C

?PR?EC_PMC2_CMD_CX?OEM_686C                      -----    -----      -----    -----
  +--> ?PR?OEM_686C
  +--> ?CO?OEM_686C

?PR?EC_PMC2_CMD_DX?OEM_686C                      -----    -----      -----    -----
  +--> ?PR?OEM_686C
  +--> ?CO?OEM_686C

?PR?EC_PMC2_CMD_EX?OEM_686C                      -----    -----      -----    -----
  +--> ?PR?OEM_686C
  +--> ?CO?OEM_686C

?PR?EC_PMC2_CMD_FX?OEM_686C                      -----    -----      -----    -----
  +--> ?PR?OEM_686C
  +--> ?CO?OEM_686C

?PR?EC68_DATA_STEP1?CORE_PMC2                    -----    -----      -----    -----
  +--> ?PR?_PMC2_READ_MAPECSPACE?OEM_686C

?PR?_PMC2_READ_MAPECSPACE?OEM_686C               -----    -----      -----    -----
  +--> ?PR?OEM_686C

?PR?EC68_DATA_STEP3?CORE_PMC2                    -----    -----      -----    -----
  +--> ?PR?_PMC2_WRITE_MAPECSPACE?OEM_686C

?PR?_PMC2_WRITE_MAPECSPACE?OEM_686C              -----    -----      -----    -----
BL51 BANKED LINKER/LOCATER V5.12                                                      09/25/2020  15:06:33  PAGE 35


  +--> ?PR?OEM_686C

?PR?PMC2_CHECKBURSTMODE?CORE_PMC2                -----    -----      0790H    0002H

?PR?SERVICE_005?CORE_MAIN                        -----    -----      -----    -----
  +--> ?PR?OEM_HOOK_5MS_EVENT?OEM_MAIN
  +--> ?PR?OEM_HOOK_125MS_EVENT?OEM_MAIN
  +--> ?PR?OEM_HOOK_10MS_EVENT?OEM_MAIN
  +--> ?PR?OEM_HOOK_250MS_EVENT?OEM_MAIN
  +--> ?PR?OEM_HOOK_50MS_EVENTA?OEM_MAIN
  +--> ?PR?OEM_HOOK_50MS_EVENTB?OEM_MAIN
  +--> ?PR?OEM_HOOK_50MS_EVENTC?OEM_MAIN
  +--> ?PR?OEM_HOOK_100MS_EVENTA?OEM_MAIN
  +--> ?PR?OEM_HOOK_100MS_EVENTB?OEM_MAIN
  +--> ?PR?OEM_HOOK_100MS_EVENTC?OEM_MAIN
  +--> ?PR?OEM_HOOK_1S_EVENTA?OEM_MAIN
  +--> ?PR?OEM_HOOK_1S_EVENTB?OEM_MAIN
  +--> ?PR?OEM_HOOK_500MS_EVENTA?OEM_MAIN
  +--> ?PR?OEM_HOOK_500MS_EVENTB?OEM_MAIN
  +--> ?PR?OEM_HOOK_500MS_EVENTC?OEM_MAIN
  +--> ?PR?OEM_HOOK_1S_EVENTC?OEM_MAIN
  +--> ?PR?OEM_HOOK_1MIN_EVENT?OEM_MAIN

?PR?OEM_HOOK_5MS_EVENT?OEM_MAIN                  -----    -----      -----    -----
  +--> ?PR?CHECK_POWER_STATE?OEM_POWER
  +--> ?PR?SERVICE_EVENTCENTER?CORE_ACPI

?PR?CHECK_POWER_STATE?OEM_POWER                  -----    -----      -----    -----
  +--> ?PR?OEM_SYSONINIT?OEM_POWER
  +--> ?PR?OEM_SYSRESUMEINIT?OEM_POWER
  +--> ?PR?EC_START?OEM_FAN
  +--> ?PR?OEM_SYSSUSPENDINIT?OEM_POWER
  +--> ?PR?OEM_SYSOFFINIT?OEM_POWER

?PR?OEM_SYSONINIT?OEM_POWER                      -----    -----      -----    -----
  +--> ?PR?EC_START?OEM_FAN

?PR?EC_START?OEM_FAN                             -----    -----      -----    -----
  +--> ?PR?OEM_FAN

?PR?OEM_SYSRESUMEINIT?OEM_POWER                  -----    -----      -----    -----
  +--> ?PR?OEM_POWER

?PR?OEM_SYSSUSPENDINIT?OEM_POWER                 -----    -----      -----    -----
  +--> ?PR?OEM_POWER

?PR?OEM_SYSOFFINIT?OEM_POWER                     -----    -----      -----    -----
  +--> ?PR?OEM_POWER

?PR?SERVICE_EVENTCENTER?CORE_ACPI                -----    -----      -----    -----
  +--> ?PR?CORE_ACPI
  +--> ?PR?SCI_INTERRUPT?CORE_ACPI

?PR?OEM_HOOK_100MS_EVENTA?OEM_MAIN               -----    -----      -----    -----
  +--> ?PR?OEM_MAIN
  +--> ?PR?EC_STOP?OEM_FAN

BL51 BANKED LINKER/LOCATER V5.12                                                      09/25/2020  15:06:33  PAGE 36


?PR?EC_STOP?OEM_FAN                              -----    -----      -----    -----
  +--> ?PR?OEM_FAN

?PR?OEM_HOOK_1S_EVENTA?OEM_MAIN                  -----    -----      -----    -----
  +--> ?PR?PROCESSLED?OEM_POWER

?PR?PROCESSLED?OEM_POWER                         -----    -----      0790H    0001H
  +--> ?CO?OEM_POWER
  +--> ?PR?PWR_LED_ON?OEM_GPIO
  +--> ?PR?PWR_LED_OFF?OEM_GPIO

*** NEW ROOT ***************************************************

?PR?ISR_TMR0?CORE_IRQ                            -----    -----      -----    -----
  +--> ?PR?LOAD_TIMER_A_1MS?CORE_INIT

*** NEW ROOT ***************************************************

?PR?ISR_INT1?CORE_IRQ                            -----    -----      -----    -----
  +--> ?CO?CORE_IRQ
  +--> ?PR?IRQNULL?CORE_IRQ

?CO?CORE_IRQ                                     -----    -----      -----    -----
  +--> ?PR?IRQNULL?CORE_IRQ
  +--> ?PR?IRQ_ADC?CORE_IRQ
  +--> ?PR?IRQ_SMB0?CORE_IRQ
  +--> ?PR?IRQ_SMB1?CORE_IRQ
  +--> ?PR?IRQ_CIR?CORE_IRQ
  +--> ?PR?IRQ_SMB2?CORE_IRQ
  +--> ?PR?IRQ_INT24_KBCIBF?CORE_IRQ
  +--> ?PR?IRQ_IBF2?CORE_IRQ
  +--> ?PR?IRQ_IBF3?CORE_IRQ
  +--> ?PR?IRQ_EXTTIMER1?CORE_IRQ
  +--> ?PR?IRQUART1?CORE_IRQ
  +--> ?PR?IRQUART2?CORE_IRQ

?PR?IRQ_EXTTIMER1?CORE_IRQ                       -----    -----      -----    -----
  +--> ?PR?SET_EXTTIMER1?CORE_INIT



SYMBOL TABLE OF MODULE:  ITEEC.ABS (CORE_IRQ)

  VALUE           TYPE          NAME
  ----------------------------------

  -------         MODULE        ?C_STARTUP
  C:0070H         SEGMENT       ?C_C51STARTUP
  I:00D0H         SEGMENT       ?STACK
  C:0000H         PUBLIC        ?C_STARTUP
  D:00E0H         SYMBOL        ACC
  D:00F0H         SYMBOL        B
  D:0083H         SYMBOL        DPH
  D:0082H         SYMBOL        DPL
  N:0000H         SYMBOL        IBPSTACK
  N:0100H         SYMBOL        IBPSTACKTOP
  N:0000H         SYMBOL        IDATALEN
BL51 BANKED LINKER/LOCATER V5.12                                                      09/25/2020  15:06:33  PAGE 37


  N:0000H         SYMBOL        PBPSTACK
  N:0000H         SYMBOL        PBPSTACKTOP
  N:0000H         SYMBOL        PDATALEN
  N:0000H         SYMBOL        PDATASTART
  N:0000H         SYMBOL        PPAGE
  N:0000H         SYMBOL        PPAGEENABLE
  D:00A0H         SYMBOL        PPAGE_SFR
  D:0081H         SYMBOL        SP
  C:0070H         SYMBOL        STARTUP1
  N:0000H         SYMBOL        XBPSTACK
  N:0000H         SYMBOL        XBPSTACKTOP
  N:0000H         SYMBOL        XDATALEN
  N:0000H         SYMBOL        XDATASTART
  C:0000H         LINE#         92
  C:0070H         LINE#         153
  C:0073H         LINE#         164
  C:0076H         LINE#         166
  C:0078H         LINE#         167
  C:007BH         LINE#         168
  C:007CH         LINE#         170
  C:007FH         LINE#         171
  C:0080H         LINE#         172
  C:0082H         LINE#         176
  -------         ENDMOD        ?C_STARTUP

  -------         MODULE        ?C?UIDIV
  C:49E0H         PUBLIC        ?C?UIDIV
  -------         ENDMOD        ?C?UIDIV

  -------         MODULE        ?C?IILDX
  C:4A35H         PUBLIC        ?C?IILDX
  -------         ENDMOD        ?C?IILDX

  -------         MODULE        ?C?SLDIV
  C:4B9DH         PUBLIC        ?C?SLDIV
  -------         ENDMOD        ?C?SLDIV

  -------         MODULE        ?C?ULSHR
  C:4A4BH         PUBLIC        ?C?ULSHR
  -------         ENDMOD        ?C?ULSHR

  -------         MODULE        ?C?LLDXDATA
  C:4A5EH         PUBLIC        ?C?LLDXDATA
  -------         ENDMOD        ?C?LLDXDATA

  -------         MODULE        ?C?LSTXDATA
  C:4A6AH         PUBLIC        ?C?LSTXDATA
  -------         ENDMOD        ?C?LSTXDATA

  -------         MODULE        ?C?CCASE
  C:4A76H         PUBLIC        ?C?CCASE
  -------         ENDMOD        ?C?CCASE

  -------         MODULE        ?C?ICASE
  C:4A9CH         PUBLIC        ?C?ICASE
  -------         ENDMOD        ?C?ICASE

BL51 BANKED LINKER/LOCATER V5.12                                                      09/25/2020  15:06:33  PAGE 38


  -------         MODULE        ?C?ICALL
  C:4AC9H         PUBLIC        ?C?ICALL
  C:4ACDH         PUBLIC        ?C?ICALL2
  -------         ENDMOD        ?C?ICALL

  -------         MODULE        ?C?ULDIV
  C:4B0BH         PUBLIC        ?C?ULDIV
  -------         ENDMOD        ?C?ULDIV

Program Size: data=135.4 xdata=848 code=15887
LINK/LOCATE RUN COMPLETE.  0 WARNING(S),  0 ERROR(S)
